c__builtin__
set
p1
((lp2
Vdrinking vessel
p3
aVall
p4
aVwritings
p5
aVexhibitions
p6
aVformer countries
p7
aVpublic offices
p8
aVceramic
p9
aVmonth
p10
aVfacilities
p11
aVspacecraft
p12
aVcode
p13
aS'movies did'
p14
aVschool buildings
p15
aVdish
p16
aVtypes of sport
p17
aVnatural region of germany
p18
aVrelationships
p19
aVastronomical object
p20
aVlanguage family
p21
aVassociation football league
p22
aS'language spoken'
p23
aS'to'
p24
aS'under'
p25
aVactivities
p26
aVfictional organizations
p27
aVdivisions
p28
aVvery
p29
aVlexical items
p30
aVadministrative country subdivisions
p31
aVsports league
p32
aS'the genre'
p33
aS'fall'
p34
aVcycling races
p35
aVrailway station
p36
aVschool
p37
aVparliaments
p38
aVdependent territories
p39
aVregional government
p40
aS'what is'
p41
aVsolution
p42
aVship element
p43
aVitems with multiple objects
p44
aVarchitectural styles
p45
aVneighborhood
p46
aVstreets
p47
aS'directed by'
p48
aS'direct'
p49
aVonline database
p50
aVtelevision programs
p51
aVconcepts about norse culture
p52
aVfurther
p53
aS'what was'
p54
aVmachines
p55
aVclassification scheme
p56
aVwill
p57
aS'what'
p58
aVmilitary campaign
p59
aVwhile
p60
aVkorea open badminton championships
p61
aVdigital cameras
p62
aVgeographic location
p63
aVabove
p64
aVonline databases
p65
aVchurches
p66
aVmustn
p67
aVrecurring tournaments
p68
aVguns
p69
aVhasn
p70
aS'type of'
p71
aVfictional location
p72
aVcomponent
p73
aVhere
p74
aVshouldn
p75
aVswiss badminton championships
p76
aVhers
p77
aVequations
p78
aVcpu design
p79
aVgerman badminton championshipss
p80
aVtrack gauges
p81
aVproperty
p82
aVhealth sciences
p83
aVmiddle-earth racess
p84
aVrecurring sporting event
p85
aVship elements
p86
aS'by this'
p87
aS'what words'
p88
aVdeities
p89
aS'the film'
p90
aVreports
p91
aVmuseums
p92
aVmusical ensembles
p93
aVchanges
p94
aVrailroad line
p95
aVprints
p96
aVflammable solid
p97
aVgeneral election
p98
aVfamily
p99
aVart collection
p100
aVolympic sporting events
p101
aVtexts
p102
aVgenre of sculpture
p103
aVlandscape
p104
aVassociation football clubs
p105
aVmountain range
p106
aVcutting tool
p107
aVmedical procedure
p108
aVtennis tournaments
p109
aVfictional ethnic group
p110
aS'type'
p111
aVuntil
p112
aVmore
p113
aVstructural element
p114
aVtype of cheese
p115
aVwars
p116
aVaward
p117
aS'what film'
p118
aVflag
p119
aVchampionships
p120
aVaircraft family
p121
aVtennis tournament
p122
aVfrench administrative division
p123
aVfactories
p124
aVheraldic symbols
p125
aS'me'
p126
aVma
p127
aVroom
p128
aVscience
p129
aVequation
p130
aVplannings
p131
aVurban unit definitions
p132
aVmartial artss
p133
aVtheories
p134
aS'movies'
p135
aVnature reserve
p136
aVunit of time
p137
aVconcepts
p138
aS'my'
p139
aVcycling team
p140
aVcutting tools
p141
aVmountain ranges
p142
aVroyal rank
p143
aS'give'
p144
aVswedish open badminton championshipss
p145
aS'movies can'
p146
aS'can be'
p147
aVarchipelago
p148
aVcurrency
p149
aVfoods
p150
aVracing
p151
aVphrase
p152
aVairplane
p153
aVliterary work
p154
aS'film script'
p155
aS'writer of'
p156
aVtelevision channels
p157
aS'writer on'
p158
aVtravel
p159
aVparliamentary committees
p160
aVmilitary branches
p161
aVmachine
p162
aVhow
p163
aVgroups of humans
p164
aVmartial arts
p165
aVneedn
p166
aVdialect
p167
aVplant
p168
aVtechnical system
p169
aVafter
p170
aVcosmeticss
p171
aVtechnicss
p172
aVstill waterss
p173
aVcatalog
p174
aVcultural studies
p175
aVperceptible objects
p176
aVlaw
p177
aS'few words'
p178
aS'a'
aVbulgarian international badminton championships
p179
aVmineral supergroups
p180
aVarchipelagos
p181
aVlanguage families
p182
aValgorithms
p183
aS'which film'
p184
aVmedia
p185
aVbanks
p186
aS'release year'
p187
aVtelevision genres
p188
aVwine
p189
aVoperations
p190
aVintellectual property
p191
aVover
p192
aVheadgear
p193
aVcomic format
p194
aVgrammatical category
p195
aVfictional humanoid
p196
aVshared universe
p197
aVcollectable
p198
aVthrough
p199
aVact of parliament
p200
aVcommittee
p201
aVolympic sporting event
p202
aVits
p203
aVmilitary unit type-size class
p204
aVbefore
p205
aVswiss open badminton championshipss
p206
aVbranches of philosophy
p207
aVdeeds
p208
aVwriting
p209
aVsymptoms
p210
aVcoats of arms
p211
aVgovernment agency
p212
aVsystems
p213
aVmobile device
p214
aVstate variable
p215
aVthen
p216
aVthem
p217
aVgood
p218
aVgovernment agencies
p219
aVdiseases
p220
aVenvironmental issue
p221
aVarea of mathematics
p222
aVfood
p223
aVsoftware framework
p224
aS'a few'
p225
aVmilitary units
p226
aVband
p227
aVarchitectural structures
p228
aVthey
p229
aVcommunities
p230
aVbank
p231
aS'films was'
p232
aVchemical substance
p233
aVpunctuation marks
p234
aVnatural science
p235
aVassemblies
p236
aVnature reserves
p237
aVrocks
p238
aVaircraft families
p239
aVnational sports team
p240
aVeach
p241
aVvolcano
p242
aVlunar calendars
p243
aVcalendar dates
p244
aVmilitary branch
p245
aVfictional astronomical object
p246
aVnavigational aids
p247
aVtelescope
p248
aVhouse
p249
aVuniversities
p250
aS'what genre'
p251
aVartistic types
p252
aVtheatrical genre
p253
aVcurrencies
p254
aVmagazine
p255
aVoperation
p256
aVevent
p257
aVtriplestores
p258
aVthoroughfares
p259
aVnational association football teams
p260
aVdialects
p261
aVcomputing platform
p262
aVre
p263
aVprint
p264
aVgame equipment
p265
aVzoological nomenclature
p266
aVutility software
p267
aS'what sort'
p268
aVdiesel engine
p269
aVhouses
p270
aVpeninsula
p271
aVtelescopes
p272
aVart genres
p273
aVnoble families
p274
aVprofessions
p275
aVcomputers
p276
aVmobile devices
p277
aVministries
p278
aVnumeral systems
p279
aVisn
p280
aVautomobile
p281
aVcomic book series
p282
aVworld views
p283
aVconstituencies
p284
aVperceptible object
p285
aS'creator of'
p286
aVnarratives
p287
aVgnu/linuxes
p288
aVhuman actions
p289
aS'primary'
p290
aVmetabolic processes
p291
aVwriting systems
p292
aVwasn
p293
aVbiomes
p294
aVpolygons
p295
aVnational association football team
p296
aS'story'
p297
aVservice
p298
aS'script'
p299
aVinfraspecific names
p300
aVcoasts
p301
aVpolitical philosophies
p302
aVarchitectural element
p303
aS'listed'
p304
aVstatement
p305
aVbiological system
p306
aVgroups of objects
p307
aS'john'
p308
aVpolitical parties
p309
aVoperating systems
p310
aVtoo
p311
aVgeographic regions
p312
aVmuscles
p313
aS'of a'
p314
aVboat type
p315
aVhuman-made rule
p316
aVtransport infrastructure
p317
aVtool
p318
aVvillages
p319
aVpark
p320
aVdog breed
p321
aVpart
p322
aVcartridges
p323
aVmunicipal council
p324
aValphabets
p325
aValbums
p326
aVlexical item
p327
aVsymptom
p328
aS'was the'
p329
aS'kind'
p330
aVphoto equipment
p331
aVtelevision genre
p332
aVproduct lining
p333
aVstructures
p334
aVvolcanoes
p335
aVmexican administrative territories
p336
aVproject
p337
aS'i'
aVstates
p338
aVtitles
p339
aVwaterways
p340
aVgenders
p341
aVhorse race
p342
aVlocomotive classes
p343
aS'screenplay'
p344
aVbridge
p345
aVpalace
p346
aVcommuter rails
p347
aS'for the'
p348
aVsports teams
p349
aVjewelleries
p350
aVsport
p351
aVchristian denominations
p352
aVhorse races
p353
aVorgans
p354
aVorders
p355
aS'script for'
p356
aVmountain
p357
aVformer administrative territory
p358
aVconstructions
p359
aVrelationship
p360
aVsoftware frameworks
p361
aVdepiction
p362
aS'release date'
p363
aVtunnels
p364
aVnational sports teams
p365
aVhymn
p366
aVplay
p367
aVhotel
p368
aS'which films'
p369
aVsports venues
p370
aVfictional characters
p371
aVmonastery
p372
aS'the creator'
p373
aVsport competition
p374
aVstructural elements
p375
aVmost
p376
aVroyal ranks
p377
aVletter
p378
aVjournalism genre
p379
aVservices
p380
aVmythological greek character
p381
aS'screenwriter'
p382
aS'movies was'
p383
aVdon
p384
aVnon-governmental organizations
p385
aVneighborhoods
p386
aS'which topics'
p387
aS'the story'
p388
aVm
aVtreaty
p389
aVmexican administrative territory
p390
aVenterprise
p391
aVfrench administrative divisions
p392
aVinstitutions
p393
aVstones
p394
aVphenomenon
p395
aVaffix
p396
aVlatin phrase
p397
aVmilitary decoration
p398
aVmiddle-earth races
p399
aVreligions
p400
aVcolors
p401
aVwelsh badminton championshipss
p402
aVsolutions
p403
aVgroup of fictional characters
p404
aS'wrote the'
p405
aS'author of'
p406
aVoccupation
p407
aVmilitary unit size classes
p408
aVcpu designs
p409
aS'writer'
p410
aVcultural movement
p411
aVreligious denomination
p412
aVthan
p413
aVranged weapons
p414
aVphotographic techniques
p415
aVprogramming tool
p416
aVformal grammars
p417
aVproduct
p418
aVdo
p419
aVhis
p420
aS'can you'
p421
aVnotation
p422
aVship types
p423
aVboard game
p424
aVwork of art
p425
aS'be described'
p426
aVcoast
p427
aVartistic technique
p428
aVliterary genres
p429
aVreport
p430
aVduring
p431
aVhim
p432
aVsocieties
p433
aVrailway facilities
p434
aVadministrative territory
p435
aVinterior spaces
p436
aVgdr badminton championships
p437
aVmethod
p438
aVmicroscope
p439
aVactivity
p440
aS'release'
p441
aVriver
p442
aVhealth problems
p443
aS'wrote'
p444
aVset
p445
aVart
p446
aVdisaster
p447
aVabstract beings
p448
aS'creator'
p449
aVmalaysia open badminton championshipss
p450
aVlifetimes
p451
aS'appears in'
p452
aVvideo game genres
p453
aVsex
p454
aVbiological process
p455
aS'are'
p456
aVresearch institute
p457
aS'who wrote'
p458
aVbadminton at the asian games
p459
aVconcertoes
p460
aVtransliteration
p461
aVdairy product
p462
aS'movie'
p463
aVinterdisciplinary sciences
p464
aVstate variables
p465
aVlibraries
p466
aVwon
p467
aVmagazine genre
p468
aVspecial fields
p469
aVbranch of philosophy
p470
aVmilitary unit
p471
aVsolid figures
p472
aVwe
p473
aVserver software
p474
aVterms
p475
aS'describe movie'
p476
aVinstitution
p477
aS'genre for'
p478
aVanatomical structure
p479
aVjournalism genres
p480
aVaircraft
p481
aVgeographical indication
p482
aVbody of water
p483
aS'genre'
p484
aVracings
p485
aVfootball tournaments
p486
aVlegislature
p487
aVboth
p488
aS'last'
p489
aS'an actor'
p490
aVecclesiastical title
p491
aS'is movie'
p492
aVcoexistences
p493
aVagainst
p494
aVbuilding component
p495
aVgdr badminton championshipss
p496
aVrecurring sporting events
p497
aS'of which'
p498
aVtechnics
p499
aVhistorical periods
p500
aVbehaviors
p501
aVpolitical philosophy
p502
aVcharacter
p503
aS'acted'
p504
aVcommunity
p505
aVmusical ensemble
p506
aVdances
p507
aVtechnical standard
p508
aVvillage
p509
aVelectrical apparatus
p510
aS'described'
p511
aVnatural physical object
p512
aVauthority organ
p513
aVconflicts
p514
aVbeen
p515
aS'whos'
p516
aVwhom
p517
aVelections in india
p518
aVfictional humanoids
p519
aVstadium
p520
aS'this person'
p521
aVterritory
p522
aVcontainers
p523
aVdams
p524
aS'life'
p525
aVfamilies
p526
aVnatural region of germanies
p527
aVenterprises
p528
aVwelsh badminton championships
p529
aVgroups of fictional characters
p530
aVsports team
p531
aVplants
p532
aVgender
p533
aVregional governments
p534
aVtank
p535
aVstadia
p536
aVpolitical territories
p537
aVelections
p538
aS'of film'
p539
aVgeographical object
p540
aVweren
p541
aVain
p542
aVglittering generalities
p543
aVwatercourse
p544
aVbehavior
p545
aS'date of'
p546
aVaerodromes
p547
aVnucleic acid sequence
p548
aS'which words'
p549
aVencyclopedias
p550
aVmonarchic system
p551
aS'is'
p552
aS'it'
p553
aVmedical specialties
p554
aVcultural studiess
p555
aVlegal term
p556
aVnatural disasters
p557
aVitself
p558
aS'in'
p559
aVislamic branches
p560
aVif
p561
aS'sort of'
p562
aVwelsh international badminton championshipss
p563
aVparish
p564
aVliterary genre
p565
aVlunar calendar
p566
aVcellular component
p567
aVideologies
p568
aVczechoslovakian international badminton championships
p569
aVtablet computers
p570
aVkey events
p571
aVmixtures
p572
aVproducts
p573
aVpolitical party
p574
aVscientific method
p575
aVshan
p576
aS'was written'
p577
aVconflict
p578
aVtransport company
p579
aS'year was'
p580
aVmedical specialty
p581
aVcartridge
p582
aVcycling teams
p583
aS'a writer'
p584
aVqualifications
p585
aVholidays
p586
aVsporting events
p587
aVnavigational aid
p588
aVliquids
p589
aVcharacters
p590
aVvideo game
p591
aVdishes
p592
aVdatabase
p593
aS'whos the'
p594
aVtime intervals
p595
aS'person'
p596
aVmaterials
p597
aVflags
p598
aVy
aVorganization
p599
aS'the'
p600
aVislamic branch
p601
aVyours
p602
aVscalar physical quantity
p603
aVjust
p604
aVrebellions
p605
aVanimal structure
p606
aS'year of'
p607
aVsolid figure
p608
aS'which movie'
p609
aS'what language'
p610
aVshape
p611
aVconstitutional amendments
p612
aVzoological nomenclatures
p613
aVhuman
p614
aVpolitical system
p615
aVrailroad
p616
aVbiome
p617
aVaircraft functional classes
p618
aVhad
p619
aVabstract being
p620
aVspacecrafts
p621
aVcollections
p622
aVexhibition
p623
aS'director that'
p624
aVsources of law
p625
aS'which screenwriter'
p626
aVhas
p627
aVarchitectural elements
p628
aS'directed which'
p629
aVbands
p630
aVpart of speech
p631
aS'is a'
p632
aVmedical procedures
p633
aVengine configuration
p634
aS'film genre'
p635
aVgame
p636
aVenumeration
p637
aVenvironmental issues
p638
aVcause of death
p639
aVtype of sport
p640
aVprojects
p641
aVhealth problem
p642
aVrecurring event
p643
aVshared universes
p644
aVd
aS'the movie'
p645
aVcapitals
p646
aVmilitary operation
p647
aVproper nouns
p648
aVmusic genre
p649
aS'described by'
p650
aVcommunications
p651
aVboat types
p652
aS'write the'
p653
aVchristian denomination
p654
aS'night'
p655
aVprogramming paradigms
p656
aVmodes of transport
p657
aVbeauty contests
p658
aVgerman badminton championships
p659
aVcomic formats
p660
aVmanufacturings
p661
aVmightn
p662
aVmethods
p663
aVpeople
p664
aVsculpture technique
p665
aS'some'
p666
aVacademic degrees
p667
aVelection
p668
aVourselves
p669
aVshapes
p670
aS'describing'
p671
aS'for'
p672
aVheadgears
p673
aVanatomical structures
p674
aS'world wrote'
p675
aVcompetitions
p676
aVreligion
p677
aVnonprofit organization
p678
aVgeometric shape
p679
aVvideo game genre
p680
aVrebellion
p681
aVfictional astronomical objects
p682
aVtemple
p683
aVdrink
p684
aVfree software license
p685
aS'be'
p686
aVadministrative territories
p687
aVword
p688
aVfood ingredient
p689
aVtaxons
p690
aVart movements
p691
aVsports leagues
p692
aS'who are'
p693
aVmode of transport
p694
aVphysical quantity
p695
aS'by'
p696
aVcemetery
p697
aVsecondary schools
p698
aVfictional taxon
p699
aVaspects of music
p700
aVtheirs
p701
aVnewspapers
p702
aVmonths
p703
aVo
aS'who stars'
p704
aVswiss badminton championshipss
p705
aVfilm studios
p706
aVhungarian international badminton championships
p707
aVunique identifiers
p708
aVbook
p709
aVpolitical organization
p710
aVmixture
p711
aVfortifications
p712
aS'film did'
p713
aVfacility
p714
aVinto
p715
aVprofession
p716
aVphysical objects
p717
aVdown
p718
aVsystem software
p719
aVmagazines
p720
aVgeographic locations
p721
aS'was directed'
p722
aVsports
p723
aVpolish open badminton championships
p724
aVurban unit definition
p725
aVgerman business organizations
p726
aVsibling groups
p727
aVpeoples
p728
aVterritories
p729
aVnational championship
p730
aVgerman open badminton championshipss
p731
aVcosmetics
p732
aVpolitical territory
p733
aVpolitical borders
p734
aS'movie is'
p735
aS'was'
p736
aVwar
p737
aVtitle of honor
p738
aVmountains
p739
aVhimself
p740
aVfilm awards
p741
aVphenomena
p742
aVeducations
p743
aVrailway stations
p744
aVmilitary unit size class
p745
aVfundamental state of matters
p746
aVcompetition
p747
aVkitchen utensil
p748
aVthemselves
p749
aVarchitectural style
p750
aS'directed'
p751
aVall england badminton championshipss
p752
aVconceptual models
p753
aVmarkets
p754
aVup
p755
aS'which person'
p756
aS'star in'
p757
aVdrinking vessels
p758
aVartistic techniques
p759
aVlater homonyms
p760
aVexecutive branches
p761
aS'act in'
p762
aVkey event
p763
aVastronomical object type
p764
aVplaces with town privileges
p765
aVtournament
p766
aVdoesn
p767
aVprecept
p768
aVengineering
p769
aVvoluntary association
p770
aVinternet genres
p771
aVclassification schemes
p772
aVbadmintons at the commonwealth games
p773
aVregime
p774
aVmedical sign
p775
aVcodes
p776
aS'listed as'
p777
aVpolygon
p778
aVno
p779
aVimage
p780
aVinternational organization
p781
aS'when'
p782
aS'and the'
p783
aS'actor'
p784
aVsocial sciences
p785
aVpublic office
p786
aVapplication
p787
aS'actors'
p788
aVheraldic symbol
p789
aVchemical substances
p790
aVpunctuation markss
p791
aVprotected area
p792
aVpolish open badminton championshipss
p793
aVpublic holidays
p794
aVmodels
p795
aVevent sequence
p796
aVwriting system
p797
aVreligious organization
p798
aVgeographical objects
p799
aVaerial bomb
p800
aVacademic discipline
p801
aVhistoriographical concepts
p802
aVstructure
p803
aVkitchen utensils
p804
aVpolitical organizations
p805
aValgorithm
p806
aVtitles of honor
p807
aVpainting
p808
aVvehicles
p809
aVforms of government
p810
aVgnu/linux
p811
aVnarrative
p812
aVwriting implement
p813
aVcomputer data storage
p814
aVinternal combustion engine
p815
aVhaving
p816
aVonce
p817
aS'who was'
p818
aVconcept
p819
aVhungarian international badminton championshipss
p820
aVdance
p821
aVtime interval
p822
aVgeochronological units
p823
aVastronomical objects
p824
aS'by who'
p825
aVfarms
p826
aVbattle
p827
aValbum
p828
aVservice on internet
p829
aVlanguages
p830
aVfamilies of compound
p831
aVdiesel engines
p832
aVingredient
p833
aVhorse breeds
p834
aVdivision
p835
aVstreet
p836
aVgarden
p837
aVengine families
p838
aVlandforms
p839
aVautomobiles
p840
aVcemeteries
p841
aVtablet computer
p842
aVpolytope operation
p843
aVtanks
p844
aVbuilding components
p845
aVyourselves
p846
aS'genre does'
p847
aVphysical object
p848
aVminerals
p849
aVhorse breed
p850
aVdomain names
p851
aVcomputer languages
p852
aVtreaties
p853
aS'did'
p854
aVpositions
p855
aVtheatre festival
p856
aVtechnical standards
p857
aVgun
p858
aVtravels
p859
aVmilitary unit type-size classes
p860
aVschool building
p861
aS'movie written'
p862
aVintegrated circuits
p863
aVarmed conflict
p864
aVart exhibition
p865
aVastronomical object types
p866
aVwork
p867
aVtemples
p868
aVtower blocks
p869
aVtrails
p870
aVdepictions
p871
aVart movement
p872
aVrivers
p873
aS'topics is'
p874
aVmunicipal councils
p875
aVlicenses
p876
aVdrinks
p877
aS'starred in'
p878
aS'describe film'
p879
aVfictional ethnic groups
p880
aVplays
p881
aS'appear'
p882
aVvoluntary associations
p883
aS'written by'
p884
aVnatural regions
p885
aVgroup of humans
p886
aVperiodical literatures
p887
aS'films did'
p888
aS'films are'
p889
aVcapital
p890
aVaircrafts
p891
aVtournaments
p892
aVpublications
p893
aVgrammatical categories
p894
aVmachine gun
p895
aVamphora
p896
aVcauses of death
p897
aVprogramming tools
p898
aVsocial group
p899
aVlakes
p900
aVgroups
p901
aVgeographic region
p902
aS'appears'
p903
aVchange
p904
aVsingle-day race
p905
aVwriting implements
p906
aVcombustion engine
p907
aVrecurring events
p908
aVfictional locations
p909
aVtitle
p910
aVresearch institutes
p911
aVscientific journal
p912
aVbusiness organizations
p913
aVpolytope operations
p914
aVaerial bombs
p915
aVfootball tournament
p916
aVartefacts
p917
aS'which actors'
p918
aVtunnel
p919
aS'love'
p920
aVbadminton at the commonwealth games
p921
aVmonarchic systems
p922
aVaffixes
p923
aVmusical instruments
p924
aVnames
p925
aVcomputer program
p926
aVfestivals
p927
aVscientific instrument
p928
aVtools
p929
aVmarket
p930
aVhotels
p931
aVviolent crimes
p932
aVmanufacturing
p933
aS'from'
p934
aVeuropean championship
p935
aVproperties
p936
aS'few'
p937
aVsourcess of law
p938
aVvehicle
p939
aS'films'
p940
aVdependent territory
p941
aS'films does'
p942
aVmilitary campaigns
p943
aS'sort'
p944
aVcycling race classes
p945
aVparliament
p946
aVparks
p947
aVstatutes
p948
aVaircraft models
p949
aVstone
p950
aVtrail
p951
aVarchitectural structure
p952
aVgoods
p953
aVconstitutional amendment
p954
aVabstract nouns
p955
aVorganizations
p956
aS'is listed'
p957
aVtelevision series
p958
aVinfraspecific name
p959
aS'this'
p960
aVvideo games
p961
aVstock characters
p962
aVhuman action
p963
aVchemical compounds
p964
aS'can'
p965
aVplace with town privileges
p966
aVwaterway
p967
aVdevelopment stage of animals
p968
aVparishes
p969
aS'in which'
p970
aVprocess
p971
aVmultiple unit
p972
aVgroup of objects
p973
aVamphoras
p974
aVagricultural machinery
p975
aVproduct linings
p976
aVclothing
p977
aVautomobile models
p978
aVjunctions
p979
aS'stars in'
p980
aVprecepts
p981
aVgeographical indications
p982
aVart exhibitions
p983
aVfictional energies
p984
aVbus models
p985
aS'genre of'
p986
aVcontracts
p987
aVbuildings
p988
aVclothings
p989
aVinformation
p990
aVfarm
p991
aVcollection
p992
aVapplications
p993
aVparliamentary committee
p994
aS'date'
p995
aVsuch
p996
aS'the primary'
p997
aS'film is'
p998
aS'man'
p999
aVbranches
p1000
aVliquid
p1001
aVdeterminator for date of periodic occurrence
p1002
aVbranches of science
p1003
aVaircraft classes
p1004
aS'when was'
p1005
aS'what does'
p1006
aS'appear in'
p1007
aVmusic genres
p1008
aVso
p1009
aVhuman-made rules
p1010
aS'movie did'
p1011
aVacademic degree
p1012
aVglittering generality
p1013
aVdevelopment stage of animal
p1014
aVsocial science
p1015
aS'movies are'
p1016
aVinternet genre
p1017
aVswedish administrative territory
p1018
aVelectronic media
p1019
aVentity
p1020
aVsymbols
p1021
aVship type
p1022
aVanatomical region
p1023
aVgeometric shapes
p1024
aVartistic theme
p1025
aVcollectables
p1026
aVdeity
p1027
aS'a movie'
p1028
aVindustries
p1029
aS'write'
p1030
aVgroup
p1031
aVtechnical processes
p1032
aVll
p1033
aVarmed conflicts
p1034
aS'the world'
p1035
aVconceptual model
p1036
aVours
p1037
aVholiday
p1038
aVreligious texts
p1039
aVsocial groups
p1040
aVjunction
p1041
aVdam
p1042
aVtype of distinction
p1043
aVmaterial
p1044
aVcultural properties
p1045
aVinterdisciplinary science
p1046
aS'what kind'
p1047
aS'film directed'
p1048
aVfamily of compound
p1049
aVart genre
p1050
aVnot
p1051
aVtelevision stations
p1052
aVworks of art
p1053
aVnow
p1054
aVreligious text
p1055
aVday
p1056
aVnor
p1057
aVstock character
p1058
aVarticles
p1059
aVterm
p1060
aVname
p1061
aVkorea open badminton championshipss
p1062
aVuniversity
p1063
aVdidn
p1064
aVproteins
p1065
aVweapon families
p1066
aS'what films'
p1067
aVbranch of science
p1068
aVeconomic branch
p1069
aVrock
p1070
aVmalaysia open badminton championships
p1071
aVidentifier
p1072
aVprotein
p1073
aVmusical forms
p1074
aS'starred which'
p1075
aVdoing
p1076
aVcomputing platforms
p1077
aVsociety
p1078
aVbooks
p1079
aS'year'
p1080
aVour
p1081
aS'girl'
p1082
aVunique identifier
p1083
aVdisasters
p1084
aVprogramming paradigm
p1085
aVout
p1086
aVdistricts of indonesia
p1087
aVcontainer
p1088
aVcocktail
p1089
aVsports clubs
p1090
aVartwork series
p1091
aVchivalric order
p1092
aS'words describing'
p1093
aVfactory
p1094
aVus administrative territories
p1095
aVcomputer programs
p1096
aVcomputer hardware
p1097
aS'what movies'
p1098
aVnon-governmental organization
p1099
aVtheory
p1100
aVwines
p1101
aVdenmark open badminton championshipss
p1102
aVreligious denominations
p1103
aVgerman business organization
p1104
aVscientific instruments
p1105
aS'the language'
p1106
aVfilm studio
p1107
aVmineral supergroupss
p1108
aVintegrated circuit
p1109
aVdutch open badminton championshipss
p1110
aVdays
p1111
aVcouldn
p1112
aS'language'
p1113
aVministry
p1114
aVphrases
p1115
aVaircraft power classes
p1116
aVasteroid classifications
p1117
aVbusiness enterprises
p1118
aVpalaces
p1119
aVdog breeds
p1120
aVqualification
p1121
aVdomain name
p1122
aVcheese
p1123
aVartistic type
p1124
aS'as director'
p1125
aVdwelling
p1126
aVmanuscript
p1127
aVoccupations
p1128
aS'spoken'
p1129
aVczechoslovakian international badminton championshipss
p1130
aVyourself
p1131
aVmicroscopes
p1132
aVmilitary schools
p1133
aVnonprofit organizations
p1134
aS'language in'
p1135
aVcity
p1136
aVpublication
p1137
aVfestival
p1138
aVsystem
p1139
aVtheir
p1140
aVindirect elections
p1141
aS'the actors'
p1142
aVtechnical process
p1143
aS'are about'
p1144
aS'language is'
p1145
aVnatural disaster
p1146
aVform of government
p1147
aVfree software licenses
p1148
aS'actors in'
p1149
aS'that'
p1150
aVnatural physical objects
p1151
aVdigital camera
p1152
aS'the release'
p1153
aS'released'
p1154
aVcalendar date
p1155
aVherself
p1156
aVhaven
p1157
aVcinematic technique
p1158
aVceramics
p1159
aVcocktails
p1160
aVsculptures
p1161
aVsport disciplines
p1162
aVitem with multiple objects
p1163
aVfood product
p1164
aVwere
p1165
aS'actor in'
p1166
aVarmored personnel carriers
p1167
aVswedish administrative territories
p1168
aVsculpture
p1169
aVsports venue
p1170
aVhistoriographical concept
p1171
aS'and'
p1172
aVcinematic techniques
p1173
aVwatercourses
p1174
aVareas of mathematics
p1175
aS'topics'
p1176
aVmetabolic process
p1177
aVhave
p1178
aVfictional energy
p1179
aVany
p1180
aVdocuments
p1181
aVprofessional association
p1182
aS'describe the'
p1183
aVcold weapons
p1184
aVengine configurations
p1185
aS'a film'
p1186
aVbattles
p1187
aVsciences
p1188
aVhuman behaviours
p1189
aVsporting event
p1190
aS'which'
p1191
aVencyclopedia
p1192
aVapplied science
p1193
aVsculpture techniques
p1194
aS'primary language'
p1195
aS'who'
p1196
aVaircraft power class
p1197
aVviolent crime
p1198
aVpart of a plant
p1199
aVscientific journals
p1200
aVservices on internet
p1201
aVdevice
p1202
aVwhy
p1203
aVaerodrome
p1204
aVstatute
p1205
aVphotographic technique
p1206
aVmilitary school
p1207
aVtechnical systems
p1208
aVdisease
p1209
aVcycling race
p1210
aVorder
p1211
aVworld championships
p1212
aVconstruction
p1213
aVdatabases
p1214
aVnoble family
p1215
aVacademic disciplines
p1216
aVlaws
p1217
aVbodies of water
p1218
aS'person directed'
p1219
aVcomputer language
p1220
aVmonasteries
p1221
aVtext
p1222
aVassociation football leagues
p1223
aVcombustion engines
p1224
aVnotations
p1225
aVplanning
p1226
aVnational championships
p1227
aVinterior space
p1228
aS'who directed'
p1229
aVfood products
p1230
aVnucleic acid sequences
p1231
aVweapons
p1232
aVknowledge
p1233
aVhadn
p1234
aVmusical instrument
p1235
aS'with'
p1236
aS'who in'
p1237
aVstate
p1238
aVdenmark open badminton championships
p1239
aVshould
p1240
aVentities
p1241
aVonly
p1242
aS'screenwriter wrote'
p1243
aS'who is'
p1244
aS'you give'
p1245
aVformer administrative territories
p1246
aVsibling group
p1247
aVdutch open badminton championships
p1248
aVreligious organizations
p1249
aVsecondary school
p1250
aVmonuments
p1251
aVsport discipline
p1252
aVcannon
p1253
aVenumerations
p1254
aVsport competitions
p1255
aVelectrical apparatus 
p1256
aVbeauty contest
p1257
aS'words'
p1258
aVcomputer hardwares
p1259
aVyears
p1260
aVmanuscripts
p1261
aVdwellings
p1262
aVprocesses
p1263
aVcommittees
p1264
aVorgan
p1265
aS'of movie'
p1266
aVmedias
p1267
aVeuropean championships
p1268
aVshe
p1269
aVevent sequences
p1270
aVus administrative territory
p1271
aVwhere
p1272
aS'who acted'
p1273
aVrailroads
p1274
aVbiological processes
p1275
aVgenres of sculpture
p1276
aVterrain
p1277
aVgroups of fictitious objects
p1278
aVcomputer
p1279
aVdevices
p1280
aVcatalogs
p1281
aVcalendar
p1282
aS'film the'
p1283
aVdeterminators for date of periodic occurrence
p1284
aVtheatrical genres
p1285
aVprogramming languages
p1286
aVgeneral elections
p1287
aS'the script'
p1288
aS'written'
p1289
aVcultural property
p1290
aVdistrict of indonesia
p1291
aVbetween
p1292
aVengineerings
p1293
aVelectionss in india
p1294
aVbridges
p1295
aS'what movie'
p1296
aVawards
p1297
aVarticle
p1298
aVecclesiastical titles
p1299
aVasteroid classification
p1300
aVchivalric orders
p1301
aVbus model
p1302
aVadministrative country subdivision
p1303
aVlandscapes
p1304
aVranged weapon
p1305
aVcontract
p1306
aVs
aVsexes
p1307
aVliterary works
p1308
aVauthority organs
p1309
aS'directed the'
p1310
aVphysiological condition
p1311
aVcolor
p1312
aVmythological greek characters
p1313
aVcoexistence
p1314
aVrailway facility
p1315
aVhumen
p1316
aVcategories of being
p1317
aS'films can'
p1318
aVdairy products
p1319
aVarts
p1320
aVcities
p1321
aVagricultural machineries
p1322
aS'film written'
p1323
aVcannons
p1324
aVairlines
p1325
aS'are the'
p1326
aVconcerto
p1327
aVpaintings
p1328
aVvisual artss
p1329
aVengine family
p1330
aVpolitical systems
p1331
aVvisual arts
p1332
aS'was it'
p1333
aVlocomotive class
p1334
aVairplanes
p1335
aS'screenplay for'
p1336
aVchemical reaction
p1337
aVtense
p1338
aVstates of matter
p1339
aVinternal combustion engines
p1340
aVthose
p1341
aVfilm award
p1342
aVhomes
p1343
aVmyself
p1344
aVlicense
p1345
aVthese
p1346
aS'was who'
p1347
aVcommuter rail
p1348
aVtypes of distinction
p1349
aVfictional organization
p1350
aVnewspaper
p1351
aVcycling race class
p1352
aVconstituency
p1353
aS'fall under'
p1354
aVstate of matter
p1355
aVve
p1356
aVwouldn
p1357
aVgerman open badminton championships
p1358
aVproper noun
p1359
aS'who starred'
p1360
aVreleases
p1361
aVdrug
p1362
aVeducational institutions
p1363
aS'author'
p1364
aVfortification
p1365
aValphabet
p1366
aVsports club
p1367
aVeducational institution
p1368
aVsame
p1369
aVworld view
p1370
aVparts
p1371
aVanatomical regions
p1372
aVhistorical period
p1373
aVgames
p1374
aVdocument
p1375
aVevents
p1376
aVtelevision station
p1377
aVlandform
p1378
aVpolitical border
p1379
aS'what type'
p1380
aVgenres
p1381
aS'director'
p1382
aVtower block
p1383
aVelectronic medias
p1384
aVchemical compound
p1385
aS'story for'
p1386
aVmosaic
p1387
aVunits of measurement
p1388
aVintellectual properties
p1389
aS'the director'
p1390
aVoff
p1391
aVcold weapon
p1392
aS'director of'
p1393
aVlegal terms
p1394
aVweapon
p1395
aVidentifiers
p1396
aVtelevision program
p1397
aVmilitary decorations
p1398
aVarmored personnel carrier
p1399
aVcomponents
p1400
aVsets
p1401
aVposition
p1402
aVmodel
p1403
aVmuscle
p1404
aVtriplestore
p1405
aVbadminton world championshipss
p1406
aVmusical composition
p1407
aVnatural sciences
p1408
aVhuman behaviour
p1409
aVrocket
p1410
aVbeing
p1411
aVfree software
p1412
aS'movie the'
p1413
aVpublic holiday
p1414
aVfundamental state of matter
p1415
aVswedish open badminton championships
p1416
aVboard games
p1417
aVsingle-day races
p1418
aVrooms
p1419
aS'is the'
p1420
aVterrains
p1421
aS'give a'
p1422
aS'genre is'
p1423
aVprotected areas
p1424
aS'of the'
p1425
aVall england badminton championships
p1426
aS'kind of'
p1427
aVnumeral system
p1428
aVball games
p1429
aVlake
p1430
aVpeninsulas
p1431
aVart collections
p1432
aVunit of measurement
p1433
aVtennis match
p1434
aVconcept about norse culture
p1435
aVlatin phrases
p1436
aVnatural region
p1437
aVjapanese badminton championshipss
p1438
aVbranch
p1439
aVtenses
p1440
aVflammable solids
p1441
aVapplied sciences
p1442
aS'what topics'
p1443
aVcalendars
p1444
aVchemical reactions
p1445
aS'the writer'
p1446
aVfictional taxons
p1447
aVtheatre festivals
p1448
aVbusiness enterprise
p1449
aVmusical compositions
p1450
aS'world'
p1451
aS'in the'
p1452
aS'starred who'
p1453
aVfurniture
p1454
aVbulgarian international badminton championshipss
p1455
aVmulti-sport event
p1456
aVschools
p1457
aVnutrients
p1458
aVmulti-sport events
p1459
aVt
aVunits of time
p1460
aVchemical bonds
p1461
aS'starred'
p1462
aVworks
p1463
aVlater homonym
p1464
aVbecause
p1465
aVjewellery
p1466
aVaircraft functional class
p1467
aVgeochronological unit
p1468
aVchurch
p1469
aS'acted in'
p1470
aVlibrary
p1471
aVgroup of fictitious objects
p1472
aVbiological systems
p1473
aVindirect election
p1474
aVimages
p1475
aVhome
p1476
aVmilitary operations
p1477
aVmultiple units
p1478
aVcellular components
p1479
aVarchaeological site
p1480
aS'director for'
p1481
aVtransliterations
p1482
aVtrack gauge
p1483
aVacts of parliament
p1484
aVautomobile model
p1485
aVrailroad lines
p1486
aVperiodical literature
p1487
aS'does'
p1488
aVstatements
p1489
aVrockets
p1490
aVarchaeological sites
p1491
aVprogramming language
p1492
aVassembly
p1493
aVthoroughfare
p1494
aVfictional character
p1495
aVcategory of being
p1496
aVspecial field
p1497
aVtransport infrastructures
p1498
aVweapon family
p1499
aVmedical signs
p1500
aVformal grammar
p1501
aS'on'
p1502
aS'about'
p1503
aVmachine guns
p1504
aVjapanese badminton championships
p1505
aS'of'
p1506
aVindustry
p1507
aVtaxon
p1508
aVabstract noun
p1509
aVideology
p1510
aVairline
p1511
aS'act'
p1512
aVor
p1513
aVroad
p1514
aVsoftware
p1515
aVartefact
p1516
aVown
p1517
aVletters
p1518
aVcommunication
p1519
aVrecurring tournament
p1520
aVwelsh international badminton championships
p1521
aS'the screenplay'
p1522
aVtennis matches
p1523
aVaspect of music
p1524
aVroads
p1525
aVswiss open badminton championships
p1526
aVcultural movements
p1527
aVyour
p1528
aVbusiness organization
p1529
aVscientific methods
p1530
aVparts of speech
p1531
aVhuman settlements
p1532
aVher
p1533
aVaren
p1534
aVmuseum
p1535
aVthere
p1536
aVcomputer data storages
p1537
aVtypes of cheese
p1538
aS'stars'
p1539
aVanimal structures
p1540
aVbadminton world championships
p1541
aVfunction
p1542
aVmineral
p1543
aS'the author'
p1544
aVunsaturated hydrocarbons
p1545
aVbrand
p1546
aVbut
p1547
aVmagazine genres
p1548
aS'what year'
p1549
aS'in a'
p1550
aVchemical bond
p1551
aVmusical form
p1552
aS'words describe'
p1553
aVhe
p1554
aVfood ingredients
p1555
aVphysical quantities
p1556
aVinternational organizations
p1557
aVoperating system
p1558
aVbook series
p1559
aS'which movies'
p1560
aVbelow
p1561
aVtelevision channel
p1562
aS'that directed'
p1563
aVmonument
p1564
aVsports equipment
p1565
aVregimes
p1566
aVhealth science
p1567
aVworld championship
p1568
aS'describe'
p1569
aVam
p1570
aS'spoken in'
p1571
aVball game
p1572
aS'an'
p1573
aS'as'
p1574
aVscalar physical quantities
p1575
aVat
p1576
aVlifetime
p1577
aVdeed
p1578
aVeducation
p1579
aVhymns
p1580
aS'film'
p1581
aVagain
p1582
aVfunctions
p1583
aS'it released'
p1584
aVingredients
p1585
aVfilm genres
p1586
aVcoat of arms
p1587
aVdrugs
p1588
aVother
p1589
aVstill waters
p1590
aS'you'
p1591
aVartistic themes
p1592
aVaircraft class
p1593
aVchampionship
p1594
aS'star'
p1595
aVassociation football club
p1596
aVunsaturated hydrocarbon
p1597
aVtransport companies
p1598
aVsymbol
p1599
aVhuman settlement
p1600
aVbadmintons at the asian games
p1601
aVparts of a plant
p1602
aVbrands
p1603
aVprofessional associations
p1604
aVphysiological conditions
p1605
aVbuilding
p1606
aVformer country
p1607
aVeconomic branches
p1608
aS'person wrote'
p1609
aVexecutive branch
p1610
aVaircraft model
p1611
aVnutrient
p1612
aVmosaics
p1613
aVgardens
p1614
aVlegislatures
p1615
atRp1616
.