c__builtin__
set
p1
((lp2
VQ18109127
p3
aVQ25588
p4
aVQ9554684
p5
aVQ4546067
p6
aVQ3597938
p7
aVQ17366607
p8
aVQ4029475
p9
aVQ4391031
p10
aVQ24578913
p11
aVQ4632083
p12
aVQ4184440
p13
aVQ964360
p14
aVQ20488544
p15
aVQ2815784
p16
aVQ4631551
p17
aVQ16145770
p18
aVQ764868
p19
aVQ4547699
p20
aVQ4630974
p21
aVQ4567398
p22
aVQ204417
p23
aVQ12299868
p24
aVQ4635634
p25
aVQ212155
p26
aVQ4031568
p27
aVQ18614572
p28
aVQ2808298
p29
aVQ135128
p30
aVQ1777439
p31
aVQ21168841
p32
aVQ23708589
p33
aVQ17412863
p34
aVQ4193501
p35
aVQ18614407
p36
aVQ4637553
p37
aVQ4193508
p38
aVQ3083972
p39
aVQ20649134
p40
aVQ4641763
p41
aVQ3392686
p42
aVQ25302674
p43
aVQ16056774
p44
aVQ3595790
p45
aVQ4300553
p46
aVQ23419122
p47
aVQ4548670
p48
aVQ3598992
p49
aVQ4548674
p50
aVQ216223
p51
aVQ4548678
p52
aVQ11185109
p53
aVQ25648862
p54
aVQ2075023
p55
aVQ229529
p56
aVQ1805889
p57
aVQ25648869
p58
aVQ10397298
p59
aVQ3281123
p60
aVQ4546517
p61
aVQ4643245
p62
aVQ206514
p63
aVQ202810
p64
aVQ29233
p65
aVQ4545526
p66
aVQ16823691
p67
aVQ124697
p68
aVQ3277679
p69
aVQ224565
p70
aVQ4571028
p71
aVQ261467
p72
aVQ1489273
p73
aVQ32786
p74
aVQ4573439
p75
aVQ7978951
p76
aVQ2617634
p77
aVQ18614896
p78
aVQ17221987
p79
aVQ207482
p80
aVQ3597272
p81
aVQ276033
p82
aVQ4582141
p83
aVQ19888945
p84
aVQ14509872
p85
aVQ2807261
p86
aVQ18148559
p87
aVQ10397150
p88
aVQ17997492
p89
aVQ4638150
p90
aVQ47021
p91
aVQ25648881
p92
aVQ1767127
p93
aVQ2476828
p94
aVQ5649683
p95
aVQ20468998
p96
aVQ2811327
p97
aVQ126093
p98
aVQ2059694
p99
aVQ4585762
p100
aVQ4585761
p101
aVQ1061257
p102
aVQ34148
p103
aVQ2119193
p104
aVQ4549884
p105
aVQ4546852
p106
aVQ11184856
p107
aVQ184605
p108
aVQ19607076
p109
aVQ2733678
p110
aVQ24211257
p111
aVQ4641091
p112
aVQ4565513
p113
aVQ9127987
p114
aVQ4643816
p115
aVQ184591
p116
aVQ11750190
p117
aVQ4643812
p118
aVQ4643810
p119
aVQ971533
p120
aVQ631134
p121
aVQ15036035
p122
aVQ23944773
p123
aVQ4549334
p124
aVQ18206412
p125
aVQ4565514
p126
aVQ1605778
p127
aVQ25648839
p128
aVQ20445820
p129
aVQ155169
p130
aVQ25648832
p131
aVQ25648833
p132
aVQ28267
p133
aVQ25648835
p134
aVQ4592160
p135
aVQ588992
p136
aVQ577900
p137
aVQ15967616
p138
aVQ258434
p139
aVQ4555538
p140
aVQ4646285
p141
aVQ10863829
p142
aVQ3597882
p143
aVQ2817750
p144
aVQ1415363
p145
aVQ4553908
p146
aVQ25267554
p147
aVQ4553902
p148
aVQ17507498
p149
aVQ3598102
p150
aVQ15123925
p151
aVQ3055389
p152
aVQ197208
p153
aVQ3640301
p154
aVQ207195
p155
aVQ1849161
p156
aVQ20813220
p157
aVQ1766848
p158
aVQ3280064
p159
aVQ19870981
p160
aVQ11751083
p161
aVQ20193198
p162
aVQ204404
p163
aVQ27668210
p164
aVQ12299970
p165
aVQ277297
p166
aVQ208283
p167
aVQ2818297
p168
aVQ158611
p169
aVQ2700640
p170
aVQ25136837
p171
aVQ931752
p172
aVQ4567088
p173
aVQ2811296
p174
aVQ17619599
p175
aVQ9132938
p176
aVQ4637338
p177
aVQ10397196
p178
aVQ129647
p179
aVQ2818471
p180
aVQ2375496
p181
aVQ175014
p182
aVQ17644407
p183
aVQ3018412
p184
aVQ667863
p185
aVQ12100164
p186
aVQ4553523
p187
aVQ21065414
p188
aVQ22913800
p189
aVQ226027
p190
aVQ19559250
p191
aVQ9132942
p192
aVQ4642490
p193
aVQ131390
p194
aVQ25648876
p195
aVQ3285292
p196
aVQ229553
p197
aVQ11188271
p198
aVQ4641100
p199
aVQ11188373
p200
aVQ11185210
p201
aVQ1626606
p202
aVQ11849625
p203
aVQ3599928
p204
aVQ4638179
p205
aVQ18159512
p206
aVQ1755859
p207
aVQ203383
p208
aVQ18701759
p209
aVQ4635159
p210
aVQ11185850
p211
aVQ4581519
p212
aVQ4581518
p213
aVQ948546
p214
aVQ4574404
p215
aVQ3977900
p216
aVQ3600263
p217
aVQ5652962
p218
aVQ5652964
p219
aVQ170487
p220
aVQ4632697
p221
aVQ3597864
p222
aVQ2812761
p223
aVQ2034
p224
aVQ4595910
p225
aVQ4580271
p226
aVQ2422126
p227
aVQ25648804
p228
aVQ25648807
p229
aVQ11186233
p230
aVQ20443695
p231
aVQ4630525
p232
aVQ4582810
p233
aVQ4630520
p234
aVQ55537
p235
aVQ55532
p236
aVQ4620176
p237
aVQ277435
p238
aVQ4646083
p239
aVQ4356001
p240
aVQ4634302
p241
aVQ208994
p242
aVQ222829
p243
aVQ3868542
p244
aVQ4569568
p245
aVQ25648899
p246
aVQ27668215
p247
aVQ4630415
p248
aVQ4630416
p249
aVQ25302844
p250
aVQ203560
p251
aVQ1212912
p252
aVQ19359159
p253
aVQ4594433
p254
aVQ4637373
p255
aVQ20871845
p256
aVQ19883027
p257
aVQ17063445
p258
aVQ208902
p259
aVQ4032783
p260
aVQ25648801
p261
aVQ4547308
p262
aVQ4546092
p263
aVQ82939
p264
aVQ4546098
p265
aVQ10397411
p266
aVQ3537233
p267
aVQ4577534
p268
aVQ4577535
p269
aVQ3235347
p270
aVQ18623
p271
aVQ25648805
p272
aVQ4630516
p273
aVQ152273
p274
aVQ14613598
p275
aVQ4560603
p276
aVQ4633272
p277
aVQ4633275
p278
aVQ4633277
p279
aVQ4633279
p280
aVQ185112
p281
aVQ4575970
p282
aVQ4031363
p283
aVQ939380
p284
aVQ20015844
p285
aVQ20751307
p286
aVQ16825231
p287
aVQ9136301
p288
aVQ3211638
p289
aVQ23638008
p290
aVQ241608
p291
aVQ19007151
p292
aVQ25648848
p293
aVQ25648834
p294
aVQ4642994
p295
aVQ25648843
p296
aVQ25648842
p297
aVQ2816861
p298
aVQ3545403
p299
aVQ4573442
p300
aVQ13485635
p301
aVQ4646283
p302
aVQ4640566
p303
aVQ4553147
p304
aVQ4573445
p305
aVQ16149980
p306
aVQ4646279
p307
aVQ3597633
p308
aVQ16525878
p309
aVQ20127610
p310
aVQ3597916
p311
aVQ4636448
p312
aVQ3291199
p313
aVQ4636443
p314
aVQ18614738
p315
aVQ2815195
p316
aVQ5653082
p317
aVQ4544986
p318
aVQ4028807
p319
aVQ4646277
p320
aVQ3596925
p321
aVQ4646278
p322
aVQ622724
p323
aVQ4631472
p324
aVQ276071
p325
aVQ3283529
p326
aVQ4546290
p327
aVQ640217
p328
aVQ4643813
p329
aVQ20888386
p330
aVQ4555731
p331
aVQ4638131
p332
aVQ4643481
p333
aVQ16525661
p334
aVQ2945964
p335
aVQ2399032
p336
aVQ1335092
p337
aVQ4641742
p338
aVQ4545531
p339
aVQ208824
p340
aVQ16241480
p341
aVQ377637
p342
aVQ10128332
p343
aVQ4558485
p344
aVQ1150961
p345
aVQ1412590
p346
aVQ4591118
p347
aVQ4640296
p348
aVQ18788265
p349
aVQ4549928
p350
aVQ16240051
p351
aVQ3281075
p352
aVQ544353
p353
aVQ27055451
p354
aVQ4565038
p355
aVQ164702
p356
aVQ11186264
p357
aVQ3597774
p358
aVQ4645691
p359
aVQ18615323
p360
aVQ20826648
p361
aVQ11186089
p362
aVQ16057084
p363
aVQ488075
p364
aVQ4634411
p365
aVQ25648798
p366
aVQ372444
p367
aVQ25648794
p368
aVQ25648793
p369
aVQ25648812
p370
aVQ25648813
p371
aVQ25648811
p372
aVQ25648814
p373
aVQ21598432
p374
aVQ4554738
p375
aVQ27267646
p376
aVQ4355460
p377
aVQ11188392
p378
aVQ4644625
p379
aVQ3599350
p380
aVQ15665645
p381
aVQ685785
p382
aVQ379484
p383
aVQ836687
p384
aVQ4644408
p385
aVQ219437
p386
aVQ213991
p387
aVQ213999
p388
aVQ4029001
p389
aVQ4634464
p390
aVQ4638175
p391
aVQ1791385
p392
aVQ1946716
p393
aVQ1248238
p394
aVQ1152631
p395
aVQ664787
p396
aVQ1948084
p397
aVQ5642787
p398
aVQ224638
p399
aVQ16202471
p400
aVQ2631364
p401
aVQ19804229
p402
aVQ4630463
p403
aVQ20426442
p404
aVQ16385008
p405
aVQ19689679
p406
aVQ3524094
p407
aVQ4554959
p408
aVQ141481
p409
aVQ4348357
p410
aVQ2807090
p411
aVQ4640152
p412
aVQ15868282
p413
aVQ15868283
p414
aVQ4633268
p415
aVQ2813204
p416
aVQ16864644
p417
aVQ17620299
p418
aVQ2807587
p419
aVQ17193218
p420
aVQ26989920
p421
aVQ4605626
p422
aVQ204470
p423
aVQ4633263
p424
aVQ206182
p425
aVQ4633266
p426
aVQ4633264
p427
aVQ4633269
p428
aVQ1141445
p429
aVQ4547751
p430
aVQ4547615
p431
aVQ4555320
p432
aVQ4637593
p433
aVQ208461
p434
aVQ269997
p435
aVQ2388537
p436
aVQ186799
p437
aVQ2813946
p438
aVQ25648856
p439
aVQ25648855
p440
aVQ25648853
p441
aVQ25648851
p442
aVQ25648914
p443
aVQ4580269
p444
aVQ3283010
p445
aVQ4589183
p446
aVQ4645111
p447
aVQ3599091
p448
aVQ3597744
p449
aVQ10351972
p450
aVQ2267126
p451
aVQ4643277
p452
aVQ1653284
p453
aVQ4636458
p454
aVQ4638734
p455
aVQ4636452
p456
aVQ4636451
p457
aVQ211685
p458
aVQ182280
p459
aVQ426069
p460
aVQ20200665
p461
aVQ2812793
p462
aVQ25648823
p463
aVQ20986886
p464
aVQ186689
p465
aVQ2818274
p466
aVQ4548302
p467
aVQ4607772
p468
aVQ20195667
p469
aVQ208837
p470
aVQ2806799
p471
aVQ25136741
p472
aVQ21980599
p473
aVQ4189846
p474
aVQ4632144
p475
aVQ3598709
p476
aVQ4547309
p477
aVQ21161474
p478
aVQ208429
p479
aVQ4549328
p480
aVQ4546849
p481
aVQ720620
p482
aVQ4546845
p483
aVQ3156755
p484
aVQ901789
p485
aVQ1954044
p486
aVQ20539435
p487
aVQ4642330
p488
aVQ18635413
p489
aVQ4639012
p490
aVQ4639015
p491
aVQ20445795
p492
aVQ20445797
p493
aVQ195576
p494
aVQ21002287
p495
aVQ5650997
p496
aVQ2151749
p497
aVQ2481193
p498
aVQ4548288
p499
aVQ216269
p500
aVQ974456
p501
aVQ25648827
p502
aVQ25648826
p503
aVQ25648825
p504
aVQ25648824
p505
aVQ783262
p506
aVQ2734213
p507
aVQ2338691
p508
aVQ9134609
p509
aVQ174997
p510
aVQ4632886
p511
aVQ693355
p512
aVQ238235
p513
aVQ1055986
p514
aVQ56194
p515
atRp516
.