(dp1
I0
c__builtin__
set
p2
((lp3
S'p286'
p4
atRp5
sI1
g2
((lp6
S'p112'
p7
atRp8
sI2
g2
((lp9
S'p448'
p10
atRp11
sI3
g2
((lp12
S'p1454'
p13
atRp14
sI4
g2
((lp15
S'p1383'
p16
atRp17
sI5
g2
((lp18
S'p611'
p19
atRp20
sI6
g2
((lp21
S'p61'
p22
atRp23
sI7
g2
((lp24
S'p421'
p25
atRp26
sI8
g2
((lp27
S'p140'
p28
aS'p3075'
p29
atRp30
sI9
g2
((lp31
S'p22'
p32
atRp33
sI10
g2
((lp34
S'p1412'
p35
atRp36
sI11
g2
((lp37
S'p3179'
p38
atRp39
sI12
g2
((lp40
S'p1001'
p41
atRp42
sI13
g2
((lp43
S'p2632'
p44
atRp45
sI14
g2
((lp46
S'p2548'
p47
atRp48
sI15
g2
((lp49
S'p21'
p50
atRp51
sI16
g2
((lp52
S'p115'
p53
atRp54
sI17
g2
((lp55
S'p505'
p56
atRp57
sI18
g2
((lp58
S'p1462'
p59
atRp60
sI19
g2
((lp61
S'p371'
p62
atRp63
sI20
g2
((lp64
S'p413'
p65
aS'p54'
p66
atRp67
sI21
g2
((lp68
S'p682'
p69
atRp70
sI22
g2
((lp71
S'p837'
p72
atRp73
sI23
g2
((lp74
S'p1408'
p75
atRp76
sI24
g2
((lp77
S'p1416'
p78
atRp79
sI25
g2
((lp80
S'p669'
p81
atRp82
sI26
g2
((lp83
S'p532'
p84
aS'p504'
p85
atRp86
sI27
g2
((lp87
S'p3148'
p88
atRp89
sI28
g2
((lp90
S'p85'
p91
atRp92
sI29
g2
((lp93
S'p47'
p94
atRp95
sI30
g2
((lp96
S'p681'
p97
atRp98
sI31
g2
((lp99
S'p36'
p100
aS'p1376'
p101
atRp102
sI32
g2
((lp103
S'p739'
p104
atRp105
sI33
g2
((lp106
S'p2079'
p107
aS'p459'
p108
atRp109
sI34
g2
((lp110
S'p135'
p111
atRp112
sI35
g2
((lp113
S'p397'
p114
aS'p376'
p115
aS'p398'
p116
ag59
aS'p206'
p117
aS'p194'
p118
atRp119
sI36
g2
((lp120
S'p647'
p121
atRp122
sI37
g2
((lp123
S'p512'
p124
atRp125
sI38
g2
((lp126
S'p414'
p127
atRp128
sI39
g2
((lp129
g97
atRp130
sI40
g2
((lp131
g117
aS'p1200'
p132
atRp133
sI41
g2
((lp134
S'p306'
p135
atRp136
sI42
g2
((lp137
S'p144'
p138
atRp139
sI43
g2
((lp140
S'p123'
p141
atRp142
sI44
g2
((lp143
S'p941'
p144
atRp145
sI45
g2
((lp146
S'p931'
p147
atRp148
sI46
g2
((lp149
g72
atRp150
sI47
g2
((lp151
S'p1433'
p152
atRp153
sI48
g2
((lp154
S'p241'
p155
aS'p410'
p156
atRp157
sI49
g2
((lp158
S'p138'
p159
atRp160
sI50
g2
((lp161
S'p734'
p162
aS'p1533'
p163
aS'p53'
p164
atRp165
sI51
g2
((lp166
S'p86'
p167
atRp168
sI52
g2
((lp169
S'p366'
p170
atRp171
sI53
g2
((lp172
S'p1340'
p173
atRp174
sI54
g2
((lp175
g16
atRp176
sI55
g2
((lp177
S'p237'
p178
atRp179
sI56
g2
((lp180
g66
aS'p2416'
p181
atRp182
sI57
g2
((lp183
S'p485'
p184
atRp185
sI58
g2
((lp186
S'p375'
p187
atRp188
sI59
g2
((lp189
S'p3156'
p190
atRp191
sI60
g2
((lp192
S'p176'
p193
atRp194
sI61
g2
((lp195
S'p412'
p196
aS'p1039'
p197
aS'p427'
p198
aS'p2695'
p199
aS'p930'
p200
aS'p1853'
p201
atRp202
sI62
g2
((lp203
S'p196'
p204
atRp205
sI63
g2
((lp206
S'p3300'
p207
atRp208
sI64
g2
((lp209
S'p991'
p210
atRp211
sI65
g2
((lp212
S'p272'
p213
atRp214
sI66
g2
((lp215
S'p166'
p216
atRp217
sI67
g2
((lp218
S'p163'
p219
atRp220
sI68
g2
((lp221
S'p88'
p222
atRp223
sI69
g2
((lp224
S'p1308'
p225
atRp226
sI70
g2
((lp227
S'p748'
p228
atRp229
sI71
g2
((lp230
S'p177'
p231
atRp232
sI72
g2
((lp233
S'p937'
p234
aS'p1686'
p235
aS'p407'
p236
aS'p101'
p237
aS'p1441'
p238
aS'p800'
p239
aS'p364'
p240
atRp241
sI73
g2
((lp242
S'p608'
p243
atRp244
sI74
g2
((lp245
S'p825'
p246
atRp247
sI75
g2
((lp248
S'p175'
p249
atRp250
sI76
g2
((lp251
S'p417'
p252
atRp253
sI77
g2
((lp254
S'p248'
p255
atRp256
sI78
g2
((lp257
g69
atRp258
sI79
g2
((lp259
S'p38'
p260
atRp261
sI80
g2
((lp262
S'p358'
p263
atRp264
sI81
g2
((lp265
S'p1382'
p266
atRp267
sI82
g2
((lp268
S'p664'
p269
atRp270
sI83
g2
((lp271
S'p2860'
p272
atRp273
sI84
g2
((lp274
S'p103'
p275
atRp276
sI85
g2
((lp277
S'p737'
p278
atRp279
sI86
g2
((lp280
S'p706'
p281
atRp282
sI87
g2
((lp283
S'p1990'
p284
atRp285
sI88
g2
((lp286
g117
ag115
ag81
ag281
ag25
atRp287
sI89
g2
((lp288
S'p1013'
p289
atRp290
sI90
g2
((lp291
S'p197'
p292
atRp293
sI91
g2
((lp294
S'p200'
p295
atRp296
sI92
g2
((lp297
g127
atRp298
sI93
g2
((lp299
S'p1389'
p300
aS'p1056'
p301
atRp302
sI94
g2
((lp303
S'p2515'
p304
aS'p287'
p305
aS'p2554'
p306
atRp307
sI95
g2
((lp308
S'p195'
p309
atRp310
sI96
g2
((lp311
S'p972'
p312
atRp313
sI97
g2
((lp314
S'p3150'
p315
atRp316
sI98
g2
((lp317
g201
atRp318
sI99
g2
((lp319
S'p172'
p320
atRp321
sI100
g2
((lp322
S'p684'
p323
atRp324
sI101
g2
((lp325
g178
atRp326
sI102
g2
((lp327
g243
atRp328
sI103
g2
((lp329
S'p1445'
p330
aS'p1434'
p331
aS'p1080'
p332
atRp333
sI104
g2
((lp334
S'p169'
p335
atRp336
sI105
g2
((lp337
g19
atRp338
sI106
g2
((lp339
S'p162'
p340
aS'p1431'
p341
atRp342
sI107
g2
((lp343
g115
ag114
ag116
atRp344
sI108
g2
((lp345
S'p450'
p346
atRp347
sI109
g2
((lp348
S'p39'
p349
aS'p1313'
p350
atRp351
sI110
g2
((lp352
g304
atRp353
sI111
g2
((lp354
S'p3279'
p355
atRp356
sI112
g2
((lp357
S'p2978'
p358
atRp359
sI113
g2
((lp360
S'p178'
p361
atRp362
sI114
g2
((lp363
S'p149'
p364
atRp365
sI115
g2
((lp366
g320
ag204
aS'p690'
p367
atRp368
sI116
g2
((lp369
S'p826'
p370
atRp371
sI117
g2
((lp372
S'p3092'
p373
aS'p1029'
p374
atRp375
sI118
g2
((lp376
S'p780'
p377
atRp378
sI119
g2
((lp379
S'p400'
p380
atRp381
sI120
g2
((lp382
g306
ag213
atRp383
sI121
g2
((lp384
S'p1050'
p385
aS'p2175'
p386
atRp387
sI122
g2
((lp388
S'p193'
p389
aS'p921'
p390
atRp391
sI123
g2
((lp392
S'p3085'
p393
atRp394
sI124
g2
((lp395
S'p1403'
p396
atRp397
sI125
g2
((lp398
S'p186'
p399
atRp400
sI126
g2
((lp401
S'p105'
p402
ag156
atRp403
sI127
g2
((lp404
S'p157'
p405
atRp406
sI128
g2
((lp407
S'p2293'
p408
atRp409
sI129
g2
((lp410
S'p3275'
p411
atRp412
sI130
g2
((lp413
g162
aS'p735'
p414
ag163
aS'p1750'
p415
ag236
atRp416
sI131
g2
((lp417
S'p841'
p418
atRp419
sI132
g2
((lp420
S'p2522'
p421
atRp422
sI133
g2
((lp423
S'p703'
p424
atRp425
sI134
g2
((lp426
S'p119'
p427
atRp428
sI135
g2
((lp429
S'p1455'
p430
aS'p1456'
p431
aS'p2354'
p432
atRp433
sI136
g2
((lp434
S'p7'
p435
atRp436
sI137
g2
((lp437
S'p137'
p438
atRp439
sI138
g2
((lp440
S'p816'
p441
atRp442
sI139
g2
((lp443
S'p859'
p444
atRp445
sI140
g2
((lp446
g72
atRp447
sI141
g2
((lp448
S'p750'
p449
atRp450
sI142
g2
((lp451
S'p1885'
p452
atRp453
sI143
g2
((lp454
S'p91'
p455
atRp456
sI144
g2
((lp457
g393
aS'p793'
p458
atRp459
sI145
g2
((lp460
g132
atRp461
sI146
g2
((lp462
S'p449'
p463
atRp464
sI147
g2
((lp465
S'p121'
p466
atRp467
sI148
g2
((lp468
g418
ag72
ag415
atRp469
sI149
g2
((lp470
S'p509'
p471
aS'p828'
p472
aS'p1542'
p473
atRp474
sI150
g2
((lp475
S'p16'
p476
atRp477
sI151
g2
((lp478
S'p3263'
p479
atRp480
sI152
g2
((lp481
S'p740'
p482
atRp483
sI153
g2
((lp484
S'p184'
p485
atRp486
sI154
g2
((lp487
S'p769'
p488
atRp489
sI155
g2
((lp490
S'p768'
p491
atRp492
sI156
g2
((lp493
S'p277'
p494
ag236
ag240
ag275
aS'p2439'
p495
aS'p37'
p496
atRp497
sI157
g2
((lp498
g187
ag10
atRp499
sI158
g2
((lp500
S'p636'
p501
atRp502
sI159
g2
((lp503
g494
atRp504
sI160
g2
((lp505
S'p291'
p506
ag427
ag147
aS'p20'
p507
aS'p19'
p508
ag44
atRp509
sI161
g2
((lp510
g181
atRp511
sI162
g2
((lp512
S'p2239'
p513
ag163
atRp514
sI163
g2
((lp515
S'p495'
p516
atRp517
sI164
g2
((lp518
S'p812'
p519
atRp520
sI165
g2
((lp521
S'p674'
p522
atRp523
sI166
g2
((lp524
S'p127'
p525
atRp526
sI167
g2
((lp527
S'p183'
p528
atRp529
sI168
g2
((lp530
g118
atRp531
sI169
g2
((lp532
S'p190'
p533
atRp534
sI170
g2
((lp535
g414
atRp536
sI171
g2
((lp537
g506
atRp538
sI172
g2
((lp539
S'p1192'
p540
atRp541
sI173
g2
((lp542
g135
aS'p3195'
p543
aS'p282'
p544
aS'p556'
p545
ag476
atRp546
sI174
g2
((lp547
g292
atRp548
sI175
g2
((lp549
g252
atRp550
sI176
g2
((lp551
S'p680'
p552
atRp553
sI177
g2
((lp554
S'p1071'
p555
atRp556
sI178
g2
((lp557
S'p3093'
p558
atRp559
sI179
g2
((lp560
S'p113'
p561
atRp562
sI180
g2
((lp563
g75
aS'p3301'
p564
atRp565
sI181
g2
((lp566
S'p361'
p567
aS'p3113'
p568
aS'p518'
p569
atRp570
sI182
g2
((lp571
g284
atRp572
sI183
g2
((lp573
S'p629'
p574
atRp575
sI184
g2
((lp576
g22
atRp577
sI185
g2
((lp578
S'p516'
p579
atRp580
sI186
g2
((lp581
S'p530'
p582
atRp583
sI187
g2
((lp584
S'p84'
p585
atRp586
sI188
g2
((lp587
g386
atRp588
sI189
g2
((lp589
S'p2453'
p590
atRp591
sI190
g2
((lp592
S'p159'
p593
atRp594
sI191
g2
((lp595
S'p1196'
p596
atRp597
sI192
g2
((lp598
g94
atRp599
sI193
g2
((lp600
S'p870'
p601
atRp602
sI194
g2
((lp603
S'p2962'
p604
atRp605
sI195
g2
((lp606
S'p658'
p607
atRp608
sI196
g2
((lp609
S'p1064'
p610
atRp611
sI197
g2
((lp612
g513
atRp613
sI198
g2
((lp614
S'p655'
p615
atRp616
sI199
g2
((lp617
S'p403'
p618
atRp619
sI200
g2
((lp620
g458
ag488
atRp621
sI201
g2
((lp622
S'p749'
p623
atRp624
sI202
g2
((lp625
S'p479'
p626
atRp627
sI203
g2
((lp628
S'p58'
p629
atRp630
sI204
g2
((lp631
S'p201'
p632
atRp633
sI205
g2
((lp634
g385
aS'p1995'
p635
ag386
atRp636
sI206
g2
((lp637
g543
atRp638
sI207
g2
((lp639
S'p411'
p640
atRp641
sI208
g2
((lp642
S'p2643'
p643
atRp644
sI209
g2
((lp645
S'p3306'
p646
aS'p3216'
p647
aS'p2363'
p648
aS'p914'
p649
aS'p2747'
p650
atRp651
sI210
g2
((lp652
S'p3264'
p653
atRp654
sI211
g2
((lp655
S'p676'
p656
atRp657
sI212
g2
((lp658
g300
atRp659
sI213
g2
((lp660
S'p520'
p661
atRp662
sI214
g2
((lp663
S'p1411'
p664
atRp665
sI215
g2
((lp666
g582
atRp667
sI216
g2
((lp668
S'p355'
p669
atRp670
sI217
g2
((lp671
g198
atRp672
sI218
g2
((lp673
S'p106'
p674
aS'p425'
p675
atRp676
sI219
g2
((lp677
S'p2061'
p678
atRp679
sI220
g2
((lp680
S'p541'
p681
ag350
atRp682
sI221
g2
((lp683
g604
aS'p97'
p684
atRp685
sI222
g2
((lp686
S'p1346'
p687
atRp688
sI223
g2
((lp689
S'p35'
p690
atRp691
sI224
g2
((lp692
S'p108'
p693
atRp694
sI225
g2
((lp695
g431
atRp696
sI226
g2
((lp697
S'p344'
p698
atRp699
sI227
g2
((lp700
S'p466'
p701
atRp702
sI228
g2
((lp703
g411
aS'p3080'
p704
atRp705
sI229
g2
((lp706
S'p1923'
p707
atRp708
sI230
g2
((lp709
S'p3137'
p710
atRp711
sI231
g2
((lp712
S'p469'
p713
atRp714
sI232
g2
((lp715
S'p3173'
p716
atRp717
sI233
g2
((lp718
S'p3174'
p719
atRp720
sI234
g2
((lp721
S'p170'
p722
atRp723
sI235
g2
((lp724
S'p129'
p725
atRp726
sI236
g2
((lp727
g281
atRp728
sI237
g2
((lp729
S'p1038'
p730
atRp731
sI238
g2
((lp732
g574
atRp733
sI239
g2
((lp734
g466
atRp735
sI240
g2
((lp736
S'p1532'
p737
aS'p641'
p738
atRp739
sI241
g2
((lp740
S'p59'
p741
atRp742
sI242
g2
((lp743
S'p805'
p744
ag390
atRp745
sI243
g2
((lp746
S'p264'
p747
atRp748
sI244
g2
((lp749
g491
atRp750
sI245
g2
((lp751
g747
atRp752
sI246
g2
((lp753
g35
atRp754
sI247
g2
((lp755
S'p189'
p756
atRp757
sI248
g2
((lp758
S'p171'
p759
ag114
ag710
ag623
atRp760
sI249
g2
((lp761
S'p136'
p762
atRp763
sI250
g2
((lp764
g216
atRp765
sI251
g2
((lp766
S'p275'
p767
atRp768
sI252
g2
((lp769
S'p27'
p770
ag737
ag516
aS'p17'
p771
atRp772
sI253
g2
((lp773
g488
aS'p2176'
p774
atRp775
sI254
g2
((lp776
S'p1312'
p777
atRp778
sI255
g2
((lp779
S'p1444'
p780
aS'p610'
p781
aS'p1427'
p782
atRp783
sI256
g2
((lp784
S'p462'
p785
ag173
aS'p1884'
p786
atRp787
sI257
g2
((lp788
S'p2348'
p789
atRp790
sI258
g2
((lp791
S'p126'
p792
atRp793
sI259
g2
((lp794
S'p289'
p795
atRp796
sI260
g2
((lp797
g544
atRp798
sI261
g2
((lp799
g330
atRp800
sI262
g2
((lp801
S'p1142'
p802
aS'p102'
p803
atRp804
sI263
g2
((lp805
S'p1399'
p806
atRp807
sI264
g2
((lp808
g408
atRp809
sI265
g2
((lp810
g716
atRp811
sI266
g2
((lp812
S'p122'
p813
atRp814
sI267
g2
((lp815
g132
atRp816
sI268
g2
((lp817
g38
atRp818
sI269
g2
((lp819
S'p3320'
p820
atRp821
sI270
g2
((lp822
S'p408'
p823
atRp824
sI271
g2
((lp825
S'p560'
p826
atRp827
sI272
g2
((lp828
S'p69'
p829
atRp830
sI273
g2
((lp831
S'p118'
p832
ag543
atRp833
sI274
g2
((lp834
S'p3103'
p835
atRp836
sI275
g2
((lp837
g116
aS'p40'
p838
atRp839
sI276
g2
((lp840
g238
atRp841
sI277
g2
((lp842
S'p3091'
p843
atRp844
sI278
g2
((lp845
S'p161'
p846
atRp847
sI279
g2
((lp848
g618
atRp849
sI280
g2
((lp850
g569
ag41
atRp851
sI281
g2
((lp852
g513
atRp853
sI282
g2
((lp854
g196
aS'p725'
p855
atRp856
sI283
g2
((lp857
g455
ag47
atRp858
sI284
g2
((lp859
g65
aS'p765'
p860
atRp861
sI285
g2
((lp862
g860
atRp863
sI286
g2
((lp864
g604
atRp865
sI287
g2
((lp866
S'p451'
p867
atRp868
sI288
g2
((lp869
g346
atRp870
sI289
g2
((lp871
g725
atRp872
sI290
g2
((lp873
g707
atRp874
sI291
g2
((lp875
S'p3081'
p876
atRp877
sI292
g2
((lp878
S'p710'
p879
aS'p1344'
p880
atRp881
sI293
g2
((lp882
S'p50'
p883
atRp884
sI294
g2
((lp885
g501
atRp886
sI295
g2
((lp887
g820
ag373
ag846
ag803
ag66
aS'p463'
p888
ag374
atRp889
sI296
g2
((lp890
g358
atRp891
sI297
g2
((lp892
S'p1057'
p893
atRp894
sI298
g2
((lp895
S'p689'
p896
atRp897
sI299
g2
((lp898
g803
atRp899
sI300
g2
((lp900
S'p607'
p901
atRp902
sI301
g2
((lp903
g643
atRp904
sI302
g2
((lp905
S'p3259'
p906
aS'p1435'
p907
ag640
atRp908
sI303
g2
((lp909
g684
ag164
atRp910
sI304
g2
((lp911
g399
ag774
ag289
atRp912
sI305
g2
((lp913
S'p57'
p914
ag719
ag698
atRp915
sI306
g2
((lp916
S'p802'
p917
aS'p1066'
p918
atRp919
sI307
g2
((lp920
g107
atRp921
sI308
g2
((lp922
S'p3095'
p923
atRp924
sI309
g2
((lp925
S'p404'
p926
ag704
atRp927
sI310
g2
((lp928
g124
ag519
atRp929
sI311
g2
((lp930
S'p25'
p931
atRp932
sI312
g2
((lp933
g65
ag349
atRp934
sI313
g2
((lp935
g207
atRp936
sI314
g2
((lp937
g132
atRp938
sI315
g2
((lp939
g197
atRp940
sI316
g2
((lp941
g335
ag341
atRp942
sI317
g2
((lp943
g200
atRp944
sI318
g2
((lp945
g678
atRp946
sI319
g2
((lp947
S'p30'
p948
atRp949
sI320
g2
((lp950
g181
atRp951
sI321
g2
((lp952
g485
atRp953
sI322
g2
((lp954
g471
ag507
ag596
atRp955
sI323
g2
((lp956
g643
aS'p2321'
p957
ag190
aS'p2417'
p958
atRp959
sI324
g2
((lp960
g210
aS'p726'
p961
atRp962
sI325
g2
((lp963
S'p3161'
p964
atRp965
sI326
g2
((lp966
S'p453'
p967
atRp968
sI327
g2
((lp969
g295
ag632
atRp970
sI328
g2
((lp971
g389
atRp972
sI329
g2
((lp973
S'p1303'
p974
atRp975
sI330
g2
((lp976
S'p276'
p977
ag234
ag756
aS'p915'
p978
aS'p840'
p979
ag10
ag482
aS'p609'
p980
ag555
ag593
atRp981
sI331
g2
((lp982
g626
atRp983
sI332
g2
((lp984
g163
atRp985
sI333
g2
((lp986
S'p6'
p987
ag813
ag350
atRp988
sI334
g2
((lp989
g906
atRp990
sI335
g2
((lp991
g508
atRp992
sI336
g2
((lp993
S'p180'
p994
atRp995
sI337
g2
((lp996
g335
atRp997
sI338
g2
((lp998
g147
atRp999
sI339
g2
((lp1000
g430
atRp1001
sI340
g2
((lp1002
g610
atRp1003
sI341
g2
((lp1004
S'p708'
p1005
atRp1006
sI342
g2
((lp1007
g786
atRp1008
sI343
g2
((lp1009
S'p467'
p1010
atRp1011
sI344
g2
((lp1012
g85
ag53
atRp1013
sI345
g2
((lp1014
g681
atRp1015
sI346
g2
((lp1016
g964
atRp1017
sI347
g2
((lp1018
g978
atRp1019
sI348
g2
((lp1020
g540
aS'p81'
p1021
atRp1022
sI349
g2
((lp1023
g355
atRp1024
sI350
g2
((lp1025
g926
atRp1026
sI351
g2
((lp1027
g555
atRp1028
sI352
g2
((lp1029
g239
atRp1030
sI353
g2
((lp1031
g713
atRp1032
sI354
g2
((lp1033
g364
atRp1034
sI355
g2
((lp1035
g958
atRp1036
sI356
g2
((lp1037
g533
aS'p9'
p1038
atRp1039
sI357
g2
((lp1040
S'p1576'
p1041
atRp1042
sI358
g2
((lp1043
g330
ag331
ag332
atRp1044
sI359
g2
((lp1045
S'p452'
p1046
atRp1047
sI360
g2
((lp1048
g402
ag759
ag424
atRp1049
sI361
g2
((lp1050
g802
atRp1051
sI362
g2
((lp1052
g561
atRp1053
sI363
g2
((lp1054
S'p974'
p1055
atRp1056
sI364
g2
((lp1057
g823
atRp1058
sI365
g2
((lp1059
g780
atRp1060
sI366
g2
((lp1061
S'p1028'
p1062
atRp1063
sI367
g2
((lp1064
S'p767'
p1065
atRp1066
sI368
g2
((lp1067
S'p552'
p1068
atRp1069
sI369
g2
((lp1070
g117
atRp1071
sI370
g2
((lp1072
S'p790'
p1073
atRp1074
sI371
g2
((lp1075
g782
atRp1076
sI372
g2
((lp1077
g331
atRp1078
sI373
g2
((lp1079
S'p98'
p1080
aS'p1040'
p1081
atRp1082
sI374
g2
((lp1083
g906
ag907
atRp1084
sI375
g2
((lp1085
g552
atRp1086
sI376
g2
((lp1087
g4
ag987
ag350
ag690
atRp1088
sI377
g2
((lp1089
g13
ag813
atRp1090
sI378
g2
((lp1091
g635
atRp1092
sI379
g2
((lp1093
S'p688'
p1094
atRp1095
sI380
g2
((lp1096
S'p702'
p1097
atRp1098
sI381
g2
((lp1099
g1021
atRp1100
sI382
g2
((lp1101
g781
atRp1102
sI383
g2
((lp1103
g980
aS'p559'
p1104
atRp1105
sI384
g2
((lp1106
S'p110'
p1107
atRp1108
sI385
g2
((lp1109
g29
ag496
atRp1110
sI386
g2
((lp1111
g35
atRp1112
sI387
g2
((lp1113
g204
atRp1114
sI388
g2
((lp1115
g545
atRp1116
sI389
g2
((lp1117
g906
atRp1118
sI390
g2
((lp1119
S'p437'
p1120
atRp1121
sI391
g2
((lp1122
g770
atRp1123
sI392
g2
((lp1124
g957
ag56
atRp1125
sI393
g2
((lp1126
g643
atRp1127
sI394
g2
((lp1128
g373
ag1081
ag648
atRp1129
sI395
g2
((lp1130
S'p789'
p1131
atRp1132
sI396
g2
((lp1133
g199
atRp1134
sI397
g2
((lp1135
S'p3189'
p1136
atRp1137
sI398
g2
((lp1138
g774
atRp1139
sI399
g2
((lp1140
g855
atRp1141
sI400
g2
((lp1142
g675
ag237
atRp1143
sI401
g2
((lp1144
g967
atRp1145
sI402
g2
((lp1146
g155
atRp1147
sI403
g2
((lp1148
S'p551'
p1149
atRp1150
sI404
g2
((lp1151
g795
atRp1152
sI405
g2
((lp1153
g25
atRp1154
sI406
g2
((lp1155
S'p3094'
p1156
atRp1157
sI407
g2
((lp1158
g84
atRp1159
sI408
g2
((lp1160
S'p1027'
p1161
atRp1162
sI409
g2
((lp1163
S'p26'
p1164
atRp1165
sI410
g2
((lp1166
g389
atRp1167
sI411
g2
((lp1168
S'p488'
p1169
atRp1170
sI412
g2
((lp1171
g187
ag367
atRp1172
sI413
g2
((lp1173
g396
ag240
ag463
atRp1174
sI414
g2
((lp1175
g979
atRp1176
sI415
g2
((lp1177
g108
atRp1178
sI416
g2
((lp1179
S'p880'
p1180
atRp1181
s.