(dp1
I0
S'coach'
p2
sI1
S'founder'
p3
sI2
S'spacecraft'
p4
sI3
S'legal'
p5
sI4
S'settlement'
p6
sI5
S'religious'
p7
sI6
S'discoverer'
p8
sI7
S'zone'
p9
sI8
S'religion'
p10
sI9
S'father'
p11
sI10
S'languages'
p12
sI11
S'overlaps'
p13
sI12
S'jurisdiction'
p14
sI13
S'detention'
p15
sI14
S'strand'
p16
sI15
S'gender'
p17
sI16
S'venue'
p18
sI17
S'manager'
p19
sI18
S'standards'
p20
sI19
S'presenter'
p21
sI20
S'team'
p22
sI21
S'biological'
p23
sI22
S'occurrence'
p24
sI23
S'licensed'
p25
sI24
S'affiliation'
p26
sI25
S'street'
p27
sI26
S'port'
p28
sI27
S'repeals'
p29
sI28
S'anthem'
p30
sI29
S'shares'
p31
sI30
S'cell'
p32
sI31
S'capital'
p33
sI32
S'ammunition'
p34
sI33
S'method'
p35
sI34
S'movement'
p36
sI35
S'body'
p37
sI36
S'drafted'
p38
sI37
S'degree'
p39
sI38
S'exchange'
p40
sI39
S'component'
p41
sI40
S'water'
p42
sI41
S'operating'
p43
sI42
S'based'
p44
sI43
S'publisher'
p45
sI44
S'inspired'
p46
sI45
S'airport'
p47
sI46
S'periodic'
p48
sI47
S'published'
p49
sI48
S'military'
p50
sI49
S'named'
p51
sI50
S'family'
p52
sI51
S'composer'
p53
sI52
S'use'
p54
sI53
S'eye'
p55
sI54
S'contains'
p56
sI55
S'arms'
p57
sI56
S'sports'
p58
sI57
S'archives'
p59
sI58
S'vehicle'
p60
sI59
S'australian'
p61
sI60
S'manufacturer'
p62
sI61
S'type'
p63
sI62
S'minor'
p64
sI63
S'conductor'
p65
sI64
S'successful'
p66
sI65
S'company'
p67
sI66
S'award'
p68
sI67
S'flag'
p69
sI68
S'commissioned'
p70
sI69
S'officeholder'
p71
sI70
S'appointed'
p72
sI71
S'crosses'
p73
sI72
S'work'
p74
sI73
S'history'
p75
sI74
S'dedicated'
p76
sI75
S'performer'
p77
sI76
S'patron'
p78
sI77
S'stated'
p79
sI78
S'process'
p80
sI79
S'currency'
p81
sI80
S'discography'
p82
sI81
S'coincident'
p83
sI82
S'organizer'
p84
sI83
S'cites'
p85
sI84
S'native'
p86
sI85
S'influenced'
p87
sI86
S'feature'
p88
sI87
S'species'
p89
sI88
S'located'
p90
sI89
S'criterion'
p91
sI90
S'adjacent'
p92
sI91
S'inflows'
p93
sI92
S'stock'
p94
sI93
S'product'
p95
sI94
S'designer'
p96
sI95
S'collection'
p97
sI96
S'catalog'
p98
sI97
S'birthday'
p99
sI98
S'blood'
p100
sI99
S'ethnic'
p101
sI100
S'ortholog'
p102
sI101
S'coat'
p103
sI102
S'exhibition'
p104
sI103
S'fictional'
p105
sI104
S'chief'
p106
sI105
S'order'
p107
sI106
S'producer'
p108
sI107
S'astronomical'
p109
sI108
S'mission'
p110
sI109
S'held'
p111
sI110
S'costume'
p112
sI111
S'statistical'
p113
sI112
S'arrangement'
p114
sI113
S'developer'
p115
sI114
S'style'
p116
sI115
S'group'
p117
sI116
S'tonality'
p118
sI117
S'crew'
p119
sI118
S'symptoms'
p120
sI119
S'platform'
p121
sI120
S'production'
p122
sI121
S'condition'
p123
sI122
S'main'
p124
sI123
S'qualifies'
p125
sI124
S'combination'
p126
sI125
S'material'
p127
sI126
S'rank'
p128
sI127
S'killed'
p129
sI128
S'association'
p130
sI129
S'storyboard'
p131
sI130
S'name'
p132
sI131
S'feast'
p133
sI132
S'victory'
p134
sI133
S'found'
p135
sI134
S'burial'
p136
sI135
S'list'
p137
sI136
S'brother'
p138
sI137
S'operator'
p139
sI138
S'decays'
p140
sI139
S'sponsor'
p141
sI140
S'year'
p142
sI141
S'distributor'
p143
sI142
S'cathedral'
p144
sI143
S'sexual'
p145
sI144
S'event'
p146
sI145
S'category'
p147
sI146
S'network'
p148
sI147
S'item'
p149
sI148
S'day'
p150
sI149
S'cause'
p151
sI150
S'highway'
p152
sI151
S'base'
p153
sI152
S'formation'
p154
sI153
S'advisor'
p155
sI154
S'interaction'
p156
sI155
S'district'
p157
sI156
S'language'
p158
sI157
S'launch'
p159
sI158
S'route'
p160
sI159
S'programming'
p161
sI160
S'place'
p162
sI161
S'competed'
p163
sI162
S'first'
p164
sI163
S'origin'
p165
sI164
S'major'
p166
sI165
S'characters'
p167
sI166
S'owned'
p168
sI167
S'endemic'
p169
sI168
S'legislative'
p170
sI169
S'city'
p171
sI170
S'given'
p172
sI171
S'publication'
p173
sI172
S'service'
p174
sI173
S'system'
p175
sI174
S'station'
p176
sI175
S'saint'
p177
sI176
S'molecular'
p178
sI177
S'final'
p179
sI178
S'recovered'
p180
sI179
S'hub'
p181
sI180
S'broadcast'
p182
sI181
S'part'
p183
sI182
S'kept'
p184
sI183
S'translation'
p185
sI184
S'inventor'
p186
sI185
S'powerplant'
p187
sI186
S'diplomatic'
p188
sI187
S'architect'
p189
sI188
S'treated'
p190
sI189
S'nominee'
p191
sI190
S'headquarters'
p192
sI191
S'manner'
p193
sI192
S'border'
p194
sI193
S'instrumentation'
p195
sI194
S'chess'
p196
sI195
S'tracklist'
p197
sI196
S'track'
p198
sI197
S'measures'
p199
sI198
S'translator'
p200
sI199
S'mouth'
p201
sI200
S'significant'
p202
sI201
S'organization'
p203
sI202
S'device'
p204
sI203
S'screenwriter'
p205
sI204
S'outflow'
p206
sI205
S'medical'
p207
sI206
S'points'
p208
sI207
S'canonization'
p209
sI208
S'institutions'
p210
sI209
S'rating'
p211
sI210
S'radix'
p212
sI211
S'lyrics'
p213
sI212
S'certification'
p214
sI213
S'armament'
p215
sI214
S'nominated'
p216
sI215
S'relation'
p217
sI216
S'subsidiary'
p218
sI217
S'taxonomic'
p219
sI218
S'occupation'
p220
sI219
S'ratio'
p221
sI220
S'office'
p222
sI221
S'title'
p223
sI222
S'winner'
p224
sI223
S'state'
p225
sI224
S'employer'
p226
sI225
S'monuments'
p227
sI226
S'photography'
p228
sI227
S'occupant'
p229
sI228
S'artist'
p230
sI229
S'teams'
p231
sI230
S'peak'
p232
sI231
S'river'
p233
sI232
S'view'
p234
sI233
S'art'
p235
sI234
S'creator'
p236
sI235
S'physically'
p237
sI236
S'terrain'
p238
sI237
S'relative'
p239
sI238
S'edition'
p240
sI239
S'operated'
p241
sI240
S'sport'
p242
sI241
S'constellation'
p243
sI242
S'subject'
p244
sI243
S'record'
p245
sI244
S'electoral'
p246
sI245
S'label'
p247
sI246
S'written'
p248
sI247
S'discovery'
p249
sI248
S'parent'
p250
sI249
S'genre'
p251
sI250
S'received'
p252
sI251
S'license'
p253
sI252
S'country'
p254
sI253
S'drug'
p255
sI254
S'facet'
p256
sI255
S'point'
p257
sI256
S'color'
p258
sI257
S'period'
p259
sI258
S'maintained'
p260
sI259
S'vessel'
p261
sI260
S'writing'
p262
sI261
S'described'
p263
sI262
S'political'
p264
sI263
S'convicted'
p265
sI264
S'genetic'
p266
sI265
S'offers'
p267
sI266
S'basic'
p268
sI267
S'basin'
p269
sI268
S'territory'
p270
sI269
S'board'
p271
sI270
S'engine'
p272
sI271
S'direction'
p273
sI272
S'educated'
p274
sI273
S'league'
p275
sI274
S'tense'
p276
sI275
S'child'
p277
sI276
S'present'
p278
sI277
S'mount'
p279
sI278
S'cast'
p280
sI279
S'watercourse'
p281
sI280
S'applies'
p282
sI281
S'aid'
p283
sI282
S'voice'
p284
sI283
S'orientation'
p285
sI284
S'played'
p286
sI285
S'surface'
p287
sI286
S'player'
p288
sI287
S'partner'
p289
sI288
S'astronaut'
p290
sI289
S'interacts'
p291
sI290
S'participating'
p292
sI291
S'damaged'
p293
sI292
S'participant'
p294
sI293
S'author'
p295
sI294
S'administration'
p296
sI295
S'member'
p297
sI296
S'wheel'
p298
sI297
S'chromosome'
p299
sI298
S'afflicts'
p300
sI299
S'party'
p301
sI300
S'conflict'
p302
sI301
S'higher'
p303
sI302
S'status'
p304
sI303
S'noble'
p305
sI304
S'used'
p306
sI305
S'director'
p307
sI306
S'student'
p308
sI307
S'fabrication'
p309
sI308
S'practiced'
p310
sI309
S'game'
p311
sI310
S'academic'
p312
sI311
S'mother'
p313
sI312
S'position'
p314
sI313
S'musical'
p315
sI314
S'bodies'
p316
sI315
S'kinship'
p317
sI316
S'executive'
p318
sI317
S'electrification'
p319
sI318
S'aspect'
p320
sI319
S'continent'
p321
sI320
S'discipline'
p322
sI321
S'doctoral'
p323
sI322
S'death'
p324
sI323
S'classification'
p325
sI324
S'candidate'
p326
sI325
S'grammatical'
p327
sI326
S'character'
p328
sI327
S'lake'
p329
sI328
S'contractor'
p330
sI329
S'instrument'
p331
sI330
S'location'
p332
sI331
S'input'
p333
sI332
S'identical'
p334
sI333
S'government'
p335
sI334
S'cultural'
p336
sI335
S'birth'
p337
sI336
S'depicts'
p338
sI337
S'officer'
p339
sI338
S'served'
p340
sI339
S'works'
p341
sI340
S'gauge'
p342
sI341
S'diocese'
p343
sI342
S'hair'
p344
sI343
S'legislated'
p345
sI344
S'home'
p346
sI345
S'contested'
p347
sI346
S'mood'
p348
sI347
S'filming'
p349
sI348
S'connecting'
p350
sI349
S'leader'
p351
sI350
S'mode'
p352
sI351
S'assembly'
p353
sI352
S'notable'
p354
sI353
S'lakes'
p355
sI354
S'architectural'
p356
sI355
S'stage'
p357
sI356
S'sister'
p358
sI357
S'lifestyle'
p359
sI358
S'universe'
p360
sI359
S'industry'
p361
sI360
S'taxon'
p362
sI361
S'ideology'
p363
sI362
S'airline'
p364
sI363
S'tributary'
p365
sI364
S'software'
p366
sI365
S'destination'
p367
sI366
S'donated'
p368
sI367
S'contributor'
p369
sI368
S'handedness'
p370
sI369
S'next'
p371
sI370
S'approved'
p372
sI371
S'start'
p373
sI372
S'describes'
p374
sI373
S'editor'
p375
sI374
S'heritage'
p376
sI375
S'function'
p377
sI376
S'head'
p378
sI377
S'form'
p379
sI378
S'specialty'
p380
sI379
S'encodes'
p381
sI380
S'encoded'
p382
sI381
S'line'
p383
sI382
S'highest'
p384
sI383
S'terminus'
p385
sI384
S'illustrator'
p386
sI385
S'official'
p387
sI386
S'signed'
p388
sI387
S'planet'
p389
sI388
S'crystal'
p390
sI389
S'intangible'
p391
sI390
S'distribution'
p392
sI391
S'citizenship'
p393
sI392
S'general'
p394
sI393
S'education'
p395
sI394
S'film'
p396
sI395
S'edibility'
p397
sI396
S'locality'
p398
sI397
S'innervated'
p399
sI398
S'treatment'
p400
sI399
S'actor'
p401
sI400
S'field'
p402
sI401
S'role'
p403
sI402
S'branch'
p404
sI403
S'residence'
p405
sI404
S'class'
p406
sI405
S'time'
p407
sI406
S'develops'
p408
sI407
S'registry'
p409
sI408
S'conferred'
p410
sI409
S'spouse'
p411
sI410
S'building'
p412
sI411
S'chairperson'
p413
sI412
S'space'
p414
sI413
S'original'
p415
sI414
S'narrative'
p416
sI415
S'determination'
p417
sI416
S'cpu'
p418
s.