(dp1
I0
S'limited'
p2
sI1
S'dynasty'
p3
sI2
S'relationships'
p4
sI3
S'whose'
p5
sI4
S'periodicals'
p6
sI5
S'married'
p7
sI6
S'school'
p8
sI7
S'encodes'
p9
sI8
S'prize'
p10
sI9
S'venue'
p11
sI10
S'heading'
p12
sI11
S'irises'
p13
sI12
S'cooperative'
p14
sI13
S'disciplines'
p15
sI14
S'direct'
p16
sI15
S'street'
p17
sI16
S'established'
p18
sI17
S'filtration'
p19
sI18
S'contributed'
p20
sI19
S'localized'
p21
sI20
S'numeral'
p22
sI21
S'studio'
p23
sI22
S'specialism'
p24
sI23
S'path'
p25
sI24
S'digits'
p26
sI25
S'substance'
p27
sI26
S'daughter'
p28
sI27
S'items'
p29
sI28
S'study'
p30
sI29
S'saint'
p31
sI30
S'military'
p32
sI31
S'classification'
p33
sI32
S'county'
p34
sI33
S'stern'
p35
sI34
S'landscape'
p36
sI35
S'would'
p37
sI36
S'hospital'
p38
sI37
S'handedness'
p39
sI38
S'arms'
p40
sI39
S'occupying'
p41
sI40
S'music'
p42
sI41
S'type'
p43
sI42
S'annotations'
p44
sI43
S'slaughtered'
p45
sI44
S'wars'
p46
sI45
S'award'
p47
sI46
S'circumstances'
p48
sI47
S'intake'
p49
sI48
S'player'
p50
sI49
S'work'
p51
sI50
S'era'
p52
sI51
S'indicates'
p53
sI52
S'discography'
p54
sI53
S'organizer'
p55
sI54
S'cites'
p56
sI55
S'preferably'
p57
sI56
S'end'
p58
sI57
S'recovery'
p59
sI58
S'feature'
p60
sI59
S'adjacent'
p61
sI60
S'significance'
p62
sI61
S'coined'
p63
sI62
S'headquarters'
p64
sI63
S'fictional'
p65
sI64
S'ultimate'
p66
sI65
S'order'
p67
sI66
S'twinned'
p68
sI67
S'executed'
p69
sI68
S'office'
p70
sI69
S'thesis'
p71
sI70
S'directional'
p72
sI71
S'personal'
p73
sI72
S'writing'
p74
sI73
S'production'
p75
sI74
S'strand'
p76
sI75
S'combination'
p77
sI76
S'dna'
p78
sI77
S'band'
p79
sI78
S'represents'
p80
sI79
S'victory'
p81
sI80
S'burial'
p82
sI81
S'owner'
p83
sI82
S'taught'
p84
sI83
S'combining'
p85
sI84
S'cathedral'
p86
sI85
S'network'
p87
sI86
S'content'
p88
sI87
S'linear'
p89
sI88
S'associate'
p90
sI89
S'standard'
p91
sI90
S'aboriginal'
p92
sI91
S'created'
p93
sI92
S'syndication'
p94
sI93
S'competed'
p95
sI94
S'features'
p96
sI95
S'primary'
p97
sI96
S'rank'
p98
sI97
S'philosophical'
p99
sI98
S'adopted'
p100
sI99
S'another'
p101
sI100
S'payload'
p102
sI101
S'needed'
p103
sI102
S'listed'
p104
sI103
S'inflow'
p105
sI104
S'manufacture'
p106
sI105
S'took'
p107
sI106
S'kept'
p108
sI107
S'roles'
p109
sI108
S'participated'
p110
sI109
S'tree'
p111
sI110
S'similar'
p112
sI111
S'screenplay'
p113
sI112
S'bridge'
p114
sI113
S'raw'
p115
sI114
S'manner'
p116
sI115
S'responsible'
p117
sI116
S'situated'
p118
sI117
S'localities'
p119
sI118
S'chess'
p120
sI119
S'effectiveness'
p121
sI120
S'mother'
p122
sI121
S'translator'
p123
sI122
S'mouth'
p124
sI123
S'grave'
p125
sI124
S'alumna'
p126
sI125
S'treats'
p127
sI126
S'medical'
p128
sI127
S'vertices'
p129
sI128
S'points'
p130
sI129
S'principle'
p131
sI130
S'canonization'
p132
sI131
S'advisory'
p133
sI132
S'radix'
p134
sI133
S'lyrics'
p135
sI134
S'orchestra'
p136
sI135
S'nominated'
p137
sI136
S'ending'
p138
sI137
S'holder'
p139
sI138
S'coast'
p140
sI139
S'new'
p141
sI140
S'botanical'
p142
sI141
S'countries'
p143
sI142
S'public'
p144
sI143
S'shots'
p145
sI144
S'release'
p146
sI145
S'headed'
p147
sI146
S'human'
p148
sI147
S'reference'
p149
sI148
S'result'
p150
sI149
S'subject'
p151
sI150
S'continent'
p152
sI151
S"there's"
p153
sI152
S'discovery'
p154
sI153
S'terms'
p155
sI154
S'accident'
p156
sI155
S'country'
p157
sI156
S'participating'
p158
sI157
S'distinction'
p159
sI158
S'genus'
p160
sI159
S'adapted'
p161
sI160
S'col'
p162
sI161
S'bestows'
p163
sI162
S'royal'
p164
sI163
S'height'
p165
sI164
S'represented'
p166
sI165
S'affiliated'
p167
sI166
S'basis'
p168
sI167
S'submarine'
p169
sI168
S'stadium'
p170
sI169
S'basic'
p171
sI170
S'expected'
p172
sI171
S'basin'
p173
sI172
S'location'
p174
sI173
S'website'
p175
sI174
S'life'
p176
sI175
S'mushroom'
p177
sI176
S'drugs'
p178
sI177
S'child'
p179
sI178
S'worked'
p180
sI179
S'air'
p181
sI180
S'watercourse'
p182
sI181
S'applies'
p183
sI182
S'stopping'
p184
sI183
S'aid'
p185
sI184
S'voice'
p186
sI185
S'launched'
p187
sI186
S'concomitant'
p188
sI187
S'played'
p189
sI188
S'interacts'
p190
sI189
S'damaged'
p191
sI190
S'specialization'
p192
sI191
S'things'
p193
sI192
S'several'
p194
sI193
S'wheel'
p195
sI194
S'intersex'
p196
sI195
S'published'
p197
sI196
S'rail'
p198
sI197
S'characters'
p199
sI198
S'cycle'
p200
sI199
S'prescribed'
p201
sI200
S'practiced'
p202
sI201
S'academic'
p203
sI202
S'qualities'
p204
sI203
S'claims'
p205
sI204
S'corporate'
p206
sI205
S'musical'
p207
sI206
S'kinship'
p208
sI207
S'sporting'
p209
sI208
S'assigned'
p210
sI209
S'identify'
p211
sI210
S'portrayed'
p212
sI211
S'previous'
p213
sI212
S'family'
p214
sI213
S'candidate'
p215
sI214
S'character'
p216
sI215
S'belongs'
p217
sI216
S'board'
p218
sI217
S'featured'
p219
sI218
S'adress'
p220
sI219
S'elevation'
p221
sI220
S'municipal'
p222
sI221
S'possible'
p223
sI222
S'cultural'
p224
sI223
S'birth'
p225
sI224
S'depicts'
p226
sI225
S'specific'
p227
sI226
S'officer'
p228
sI227
S'performing'
p229
sI228
S'people'
p230
sI229
S'maintained'
p231
sI230
S'captive'
p232
sI231
S'clubs'
p233
sI232
S'theatrical'
p234
sI233
S'companions'
p235
sI234
S'creative'
p236
sI235
S'filming'
p237
sI236
S'orbited'
p238
sI237
S'unit'
p239
sI238
S'varity'
p240
sI239
S'plot'
p241
sI240
S'marketing'
p242
sI241
S'illustration'
p243
sI242
S'architectural'
p244
sI243
S'graduated'
p245
sI244
S'eye'
p246
sI245
S'nerve'
p247
sI246
S'destination'
p248
sI247
S'formerly'
p249
sI248
S'son'
p250
sI249
S'device'
p251
sI250
S'donated'
p252
sI251
S'initial'
p253
sI252
S'available'
p254
sI253
S'sovereign'
p255
sI254
S'width'
p256
sI255
S'editor'
p257
sI256
S'way'
p258
sI257
S'resulted'
p259
sI258
S'launching'
p260
sI259
S'lowest'
p261
sI260
S'head'
p262
sI261
S'form'
p263
sI262
S'encoded'
p264
sI263
S'born'
p265
sI264
S'crystal'
p266
sI265
S'teleplay'
p267
sI266
S'election'
p268
sI267
S'originating'
p269
sI268
S'computing'
p270
sI269
S'tournament'
p271
sI270
S'disease'
p272
sI271
S'ship'
p273
sI272
S'physical'
p274
sI273
S'locality'
p275
sI274
S'innervated'
p276
sI275
S'generally'
p277
sI276
S'actor'
p278
sI277
S'grammatical'
p279
sI278
S'setting'
p280
sI279
S'role'
p281
sI280
S'holding'
p282
sI281
S'papers'
p283
sI282
S'transgender'
p284
sI283
S'picture'
p285
sI284
S'football'
p286
sI285
S'miscellaneous'
p287
sI286
S'concurrent'
p288
sI287
S'rolling'
p289
sI288
S'died'
p290
sI289
S'chairperson'
p291
sI290
S'bestowed'
p292
sI291
S'time'
p293
sI292
S'conferred'
p294
sI293
S'songs'
p295
sI294
S'coach'
p296
sI295
S'managed'
p297
sI296
S'manager'
p298
sI297
S'manages'
p299
sI298
S'ballet'
p300
sI299
S'inverse'
p301
sI300
S'zone'
p302
sI301
S'technique'
p303
sI302
S'father'
p304
sI303
S'bordered'
p305
sI304
S'charge'
p306
sI305
S'division'
p307
sI306
S'artwork'
p308
sI307
S'governments'
p309
sI308
S'presented'
p310
sI309
S'die'
p311
sI310
S'brother'
p312
sI311
S'standards'
p313
sI312
S'item'
p314
sI313
S'team'
p315
sI314
S'occurrence'
p316
sI315
S'affiliation'
p317
sI316
S'port'
p318
sI317
S'appear'
p319
sI318
S'shares'
p320
sI319
S'current'
p321
sI320
S'goes'
p322
sI321
S'principal'
p323
sI322
S'filled'
p324
sI323
S'drafted'
p325
sI324
S'costumes'
p326
sI325
S'water'
p327
sI326
S'groups'
p328
sI327
S'appears'
p329
sI328
S'studied'
p330
sI329
S'funded'
p331
sI330
S'usually'
p332
sI331
S'1st'
p333
sI332
S'manufacturing'
p334
sI333
S'working'
p335
sI334
S'sports'
p336
sI335
S'live'
p337
sI336
S'australian'
p338
sI337
S'sharing'
p339
sI338
S'conductor'
p340
sI339
S'commissioned'
p341
sI340
S'officeholder'
p342
sI341
S'currency'
p343
sI342
S'car'
p344
sI343
S'originally'
p345
sI344
S'values'
p346
sI345
S'heart'
p347
sI346
S'dedicated'
p348
sI347
S'performer'
p349
sI348
S'stream'
p350
sI349
S'confused'
p351
sI350
S'topic'
p352
sI351
S'coincident'
p353
sI352
S'inflows'
p354
sI353
S'species'
p355
sI354
S'positional'
p356
sI355
S'criterion'
p357
sI356
S'speaks'
p358
sI357
S'product'
p359
sI358
S'designer'
p360
sI359
S'may'
p361
sI360
S'designated'
p362
sI361
S'membership'
p363
sI362
S'birthday'
p364
sI363
S'designed'
p365
sI364
S'nomination'
p366
sI365
S'natural'
p367
sI366
S'council'
p368
sI367
S'explicit'
p369
sI368
S'talk'
p370
sI369
S'typical'
p371
sI370
S'serving'
p372
sI371
S'displayed'
p373
sI372
S'entity'
p374
sI373
S'statistical'
p375
sI374
S'subassembly'
p376
sI375
S'group'
p377
sI376
S'facility'
p378
sI377
S'platform'
p379
sI378
S'coaching'
p380
sI379
S'offers'
p381
sI380
S'main'
p382
sI381
S'correspondence'
p383
sI382
S'qualifies'
p384
sI383
S'qualifier'
p385
sI384
S'views'
p386
sI385
S'profession'
p387
sI386
S'qualified'
p388
sI387
S'killed'
p389
sI388
S'enacted'
p390
sI389
S'name'
p391
sI390
S'rock'
p392
sI391
S'successful'
p393
sI392
S'sponsor'
p394
sI393
S'year'
p395
sI394
S'distributor'
p396
sI395
S'shown'
p397
sI396
S'space'
p398
sI397
S'contained'
p399
sI398
S'investigation'
p400
sI399
S"shouldn't"
p401
sI400
S'sainthood'
p402
sI401
S'attended'
p403
sI402
S'governing'
p404
sI403
S'recordings'
p405
sI404
S'card'
p406
sI405
S'software'
p407
sI406
S'language'
p408
sI407
S'programming'
p409
sI408
S'motion'
p410
sI409
S'thing'
p411
sI410
S'place'
p412
sI411
S'aboard'
p413
sI412
S'routes'
p414
sI413
S'first'
p415
sI414
S'origin'
p416
sI415
S'symmetry'
p417
sI416
S'occupations'
p418
sI417
S'spoken'
p419
sI418
S'municipality'
p420
sI419
S'one'
p421
sI420
S'directly'
p422
sI421
S'spanish'
p423
sI422
S'city'
p424
sI423
S'given'
p425
sI424
S'district'
p426
sI425
S'participates'
p427
sI426
S'indicate'
p428
sI427
S'2'
sI428
S'legally'
p429
sI429
S'structures'
p430
sI430
S'eyes'
p431
sI431
S'hub'
p432
sI432
S'broadcast'
p433
sI433
S'released'
p434
sI434
S'copy'
p435
sI435
S'representing'
p436
sI436
S'specify'
p437
sI437
S'inventor'
p438
sI438
S'television'
p439
sI439
S'diplomatic'
p440
sI440
S'protected'
p441
sI441
S'coat'
p442
sI442
S'outcome'
p443
sI443
S'transport'
p444
sI444
S'fork'
p445
sI445
S'surname'
p446
sI446
S'acknowledged'
p447
sI447
S'locations'
p448
sI448
S'departure'
p449
sI449
S'buried'
p450
sI450
S'voiced'
p451
sI451
S'occupied'
p452
sI452
S'canton'
p453
sI453
S'note'
p454
sI454
S'equipment'
p455
sI455
S'take'
p456
sI456
S'online'
p457
sI457
S'coincide'
p458
sI458
S'altered'
p459
sI459
S'opposite'
p460
sI460
S'track'
p461
sI461
S'molecule'
p462
sI462
S'radioactive'
p463
sI463
S'later'
p464
sI464
S'senior'
p465
sI465
S'rating'
p466
sI466
S'shot'
p467
sI467
S'discoverer'
p468
sI468
S'show'
p469
sI469
S'german'
p470
sI470
S'discovered'
p471
sI471
S'copyrighted'
p472
sI472
S'ratio'
p473
sI473
S'title'
p474
sI474
S'state'
p475
sI475
S'crime'
p476
sI476
S'ranking'
p477
sI477
S'hungarian'
p478
sI478
S'mortally'
p479
sI479
S'affecting'
p480
sI480
S'prime'
p481
sI481
S'artist'
p482
sI482
S'physically'
p483
sI483
S'seat'
p484
sI484
S'relative'
p485
sI485
S'elected'
p486
sI486
S'actively'
p487
sI487
S'college'
p488
sI488
S'calendar'
p489
sI489
S'sport'
p490
sI490
S'label'
p491
sI491
S'3'
sI492
S'parent'
p492
sI493
S'awards'
p493
sI494
S'originates'
p494
sI495
S'outflows'
p495
sI496
S'residence'
p496
sI497
S'region'
p497
sI498
S'according'
p498
sI499
S'railway'
p499
sI500
S'traded'
p500
sI501
S'comes'
p501
sI502
S'historians'
p502
sI503
S'color'
p503
sI504
S'period'
p504
sI505
S'slain'
p505
sI506
S'article'
p506
sI507
S'crew'
p507
sI508
S'unusual'
p508
sI509
S'informed'
p509
sI510
S'engine'
p510
sI511
S'direction'
p511
sI512
S'educated'
p512
sI513
S'formed'
p513
sI514
S'former'
p514
sI515
S'case'
p515
sI516
S'resides'
p516
sI517
S'developing'
p517
sI518
S'mount'
p518
sI519
S'cast'
p519
sI520
S'seepage'
p520
sI521
S'orientation'
p521
sI522
S'characteristics'
p522
sI523
S'middle'
p523
sI524
S'waterway'
p524
sI525
S'different'
p525
sI526
S'participant'
p526
sI527
S'author'
p527
sI528
S'media'
p528
sI529
S'granted'
p529
sI530
S'pad'
p530
sI531
S'afflicts'
p531
sI532
S'document'
p532
sI533
S'events'
p533
sI534
S'status'
p534
sI535
S'noble'
p535
sI536
S'extended'
p536
sI537
S'director'
p537
sI538
S'persons'
p538
sI539
S'without'
p539
sI540
S'therapy'
p540
sI541
S'dimension'
p541
sI542
S'bodies'
p542
sI543
S'actions'
p543
sI544
S'electrification'
p544
sI545
S'aspect'
p545
sI546
S'doctoral'
p546
sI547
S'death'
p547
sI548
S'rose'
p548
sI549
S'instrument'
p549
sI550
S'treatment'
p550
sI551
S'around'
p551
sI552
S'using'
p552
sI553
S'recipient'
p553
sI554
S'twin'
p554
sI555
S'serves'
p555
sI556
S'audience'
p556
sI557
S'either'
p557
sI558
S'served'
p558
sI559
S'grouping'
p559
sI560
S'crafted'
p560
sI561
S'competition'
p561
sI562
S'specified'
p562
sI563
S'organizing'
p563
sI564
S'mood'
p564
sI565
S'recorded'
p565
sI566
S'legal'
p566
sI567
S'assembly'
p567
sI568
S'scientific'
p568
sI569
S'business'
p569
sI570
S'manufactured'
p570
sI571
S'notable'
p571
sI572
S'arts'
p572
sI573
S'notably'
p573
sI574
S'occured'
p574
sI575
S'ontology'
p575
sI576
S'manufacturer'
p576
sI577
S'stations'
p577
sI578
S'industry'
p578
sI579
S'taxon'
p579
sI580
S'ideology'
p580
sI581
S'journey'
p581
sI582
S'supervised'
p582
sI583
S'airline'
p583
sI584
S'act'
p584
sI585
S'tributary'
p585
sI586
S'os'
p586
sI587
S'road'
p587
sI588
S'instruments'
p588
sI589
S'image'
p589
sI590
S'stratigraphic'
p590
sI591
S'determine'
p591
sI592
S'pharmaceutical'
p592
sI593
S'area'
p593
sI594
S'genetic'
p594
sI595
S'start'
p595
sI596
S'brazilian'
p596
sI597
S'railcars'
p597
sI598
S'municipalities'
p598
sI599
S'drains'
p599
sI600
S'terminus'
p600
sI601
S'illustrator'
p601
sI602
S'detailed'
p602
sI603
S'celestial'
p603
sI604
S'citizenship'
p604
sI605
S'videos'
p605
sI606
S'citation'
p606
sI607
S'general'
p607
sI608
S'navy'
p608
sI609
S'planets'
p609
sI610
S'horse'
p610
sI611
S'film'
p611
sI612
S'edibility'
p612
sI613
S'administered'
p613
sI614
S'graduate'
p614
sI615
S'field'
p615
sI616
S'valid'
p616
sI617
S'astronaut'
p617
sI618
S'lifestyle'
p618
sI619
S'presenting'
p619
sI620
S'narrative'
p620
sI621
S'registry'
p621
sI622
S'spouse'
p622
sI623
S'building'
p623
sI624
S'clinically'
p624
sI625
S'assets'
p625
sI626
S'finished'
p626
sI627
S'starting'
p627
sI628
S'original'
p628
sI629
S'colleges'
p629
sI630
S'exhibitions'
p630
sI631
S'founder'
p631
sI632
S'caused'
p632
sI633
S'none'
p633
sI634
S'month'
p634
sI635
S'founded'
p635
sI636
S'spacecraft'
p636
sI637
S'settlement'
p637
sI638
S'religious'
p638
sI639
S'causes'
p639
sI640
S'referring'
p640
sI641
S'tv'
p641
sI642
S'program'
p642
sI643
S'song'
p643
sI644
S'detention'
p644
sI645
S'rebounds'
p645
sI646
S'alma'
p646
sI647
S'list'
p647
sI648
S'applicable'
p648
sI649
S'biological'
p649
sI650
S'titles'
p650
sI651
S'functioning'
p651
sI652
S'repeals'
p652
sI653
S'section'
p653
sI654
S'version'
p654
sI655
S'learned'
p655
sI656
S'method'
p656
sI657
S'movement'
p657
sI658
S'edited'
p658
sI659
S'full'
p659
sI660
S'christian'
p660
sI661
S'component'
p661
sI662
S'operating'
p662
sI663
S'publisher'
p663
sI664
S'naval'
p664
sI665
S'fielding'
p665
sI666
S'inspired'
p666
sI667
S'airport'
p667
sI668
S'periodic'
p668
sI669
S'social'
p669
sI670
S'formation'
p670
sI671
S'transit'
p671
sI672
S'armed'
p672
sI673
S'languages'
p673
sI674
S'takes'
p674
sI675
S'distinct'
p675
sI676
S'contains'
p676
sI677
S'two'
p677
sI678
S'archives'
p678
sI679
S'taken'
p679
sI680
S'minor'
p680
sI681
S'substances'
p681
sI682
S'company'
p682
sI683
S'flag'
p683
sI684
S'particular'
p684
sI685
S'known'
p685
sI686
S'keeping'
p686
sI687
S'male'
p687
sI688
S'history'
p688
sI689
S'stated'
p689
sI690
S'states'
p690
sI691
S'sphere'
p691
sI692
S'offspring'
p692
sI693
S'axis'
p693
sI694
S'information'
p694
sI695
S'goal'
p695
sI696
S'creature'
p696
sI697
S'plant'
p697
sI698
S'intended'
p698
sI699
S'derived'
p699
sI700
S'catalog'
p700
sI701
S'lighting'
p701
sI702
S'blood'
p702
sI703
S'ortholog'
p703
sI704
S'shore'
p704
sI705
S'broadcasting'
p705
sI706
S'geographic'
p706
sI707
S'playing'
p707
sI708
S'help'
p708
sI709
S"don't"
p709
sI710
S'hierarchy'
p710
sI711
S'developed'
p711
sI712
S'mission'
p712
sI713
S'installed'
p713
sI714
S'held'
p714
sI715
S'developer'
p715
sI716
S'style'
p716
sI717
S'symptoms'
p717
sI718
S'territorial'
p718
sI719
S'someone'
p719
sI720
S'ceo'
p720
sI721
S'association'
p721
sI722
S'fully'
p722
sI723
S'level'
p723
sI724
S'found'
p724
sI725
S"isn't"
p725
sI726
S'subsystem'
p726
sI727
S'monks'
p727
sI728
S'event'
p728
sI729
S'presenter'
p729
sI730
S'participants'
p730
sI731
S'health'
p731
sI732
S'occurs'
p732
sI733
S'highway'
p733
sI734
S'bass'
p734
sI735
S'housed'
p735
sI736
S'circumstance'
p736
sI737
S'houses'
p737
sI738
S'qualify'
p738
sI739
S'base'
p739
sI740
S'service'
p740
sI741
S'launch'
p741
sI742
S'major'
p742
sI743
S'relate'
p743
sI744
S'number'
p744
sI745
S'story'
p745
sI746
S'script'
p746
sI747
S'interact'
p747
sI748
S'rails'
p748
sI749
S'station'
p749
sI750
S'passed'
p750
sI751
S'molecular'
p751
sI752
S'recovered'
p752
sI753
S'statement'
p753
sI754
S'relationship'
p754
sI755
S'immediate'
p755
sI756
S'part'
p756
sI757
S'theater'
p757
sI758
S'translation'
p758
sI759
S'licensed'
p759
sI760
S'kind'
p760
sI761
S'scheme'
p761
sI762
S'namesake'
p762
sI763
S'powerplant'
p763
sI764
S'double'
p764
sI765
S'vocal'
p765
sI766
S'determined'
p766
sI767
S'architect'
p767
sI768
S'exposures'
p768
sI769
S'treated'
p769
sI770
S'nominee'
p770
sI771
S'option'
p771
sI772
S'built'
p772
sI773
S'also'
p773
sI774
S'aired'
p774
sI775
S'monastery'
p775
sI776
S'measures'
p776
sI777
S'eaten'
p777
sI778
S'engagements'
p778
sI779
S'screenwriter'
p779
sI780
S'constructed'
p780
sI781
S'mineral'
p781
sI782
S'artistic'
p782
sI783
S'organism'
p783
sI784
S'institutions'
p784
sI785
S'evaporation'
p785
sI786
S'session'
p786
sI787
S'relation'
p787
sI788
S'occupation'
p788
sI789
S'writer'
p789
sI790
S'distributed'
p790
sI791
S'merged'
p791
sI792
S'compiled'
p792
sI793
S'trees'
p793
sI794
S'broadest'
p794
sI795
S'famous'
p795
sI796
S'activity'
p796
sI797
S'river'
p797
sI798
S'wrote'
p798
sI799
S'set'
p799
sI800
S'art'
p800
sI801
S'creator'
p801
sI802
S'culture'
p802
sI803
S'see'
p803
sI804
S'individual'
p804
sI805
S'migration'
p805
sI806
S'portrait'
p806
sI807
S'constellation'
p807
sI808
S'contour'
p808
sI809
S'bibliographic'
p809
sI810
S'pictures'
p810
sI811
S'please'
p811
sI812
S'historical'
p812
sI813
S'sole'
p813
sI814
S'aircraft'
p814
sI815
S'genre'
p815
sI816
S'legislature'
p816
sI817
S'league'
p817
sI818
S'last'
p818
sI819
S'license'
p819
sI820
S'tonality'
p820
sI821
S'landform'
p821
sI822
S'point'
p822
sI823
S'community'
p823
sI824
S'dimensional'
p824
sI825
S'alumnus'
p825
sI826
S'church'
p826
sI827
S'vessel'
p827
sI828
S'described'
p828
sI829
S'publishing'
p829
sI830
S'create'
p830
sI831
S'political'
p831
sI832
S'teacher'
p832
sI833
S'convicted'
p833
sI834
S'describes'
p834
sI835
S'territory'
p835
sI836
S'firm'
p836
sI837
S'resting'
p837
sI838
S'lived'
p838
sI839
S'flight'
p839
sI840
S'honorary'
p840
sI841
S'determination'
p841
sI842
S'representative'
p842
sI843
S'suicide'
p843
sI844
S'politician'
p844
sI845
S'bill'
p845
sI846
S'radio'
p846
sI847
S'larger'
p847
sI848
S'paralympic'
p848
sI849
S'obstacle'
p849
sI850
S'ethnicity'
p850
sI851
S'belong'
p851
sI852
S'widely'
p852
sI853
S'composition'
p853
sI854
S'conflict'
p854
sI855
S'higher'
p855
sI856
S'used'
p856
sI857
S'cartridge'
p857
sI858
S'flows'
p858
sI859
S'fabrication'
p859
sI860
S'gene'
p860
sI861
S'orthologous'
p861
sI862
S'honor'
p862
sI863
S'person'
p863
sI864
S'organization'
p864
sI865
S'stating'
p865
sI866
S'injuries'
p866
sI867
S'discipline'
p867
sI868
S'contractor'
p868
sI869
S'source'
p869
sI870
S'governmental'
p870
sI871
S'exhibition'
p871
sI872
S'input'
p872
sI873
S'administrative'
p873
sI874
S'big'
p874
sI875
S'game'
p875
sI876
S'formal'
p876
sI877
S'nobility'
p877
sI878
S'chorus'
p878
sI879
S'individuals'
p879
sI880
S'translated'
p880
sI881
S'often'
p881
sI882
S'diocese'
p882
sI883
S'economic'
p883
sI884
S'describing'
p884
sI885
S'per'
p885
sI886
S'religion'
p886
sI887
S'connecting'
p887
sI888
S'isotope'
p888
sI889
S'object'
p889
sI890
S'processing'
p890
sI891
S'lakes'
p891
sI892
S'stem'
p892
sI893
S'nerves'
p893
sI894
S'range'
p894
sI895
S'significant'
p895
sI896
S'within'
p896
sI897
S'appropriate'
p897
sI898
S'contributor'
p898
sI899
S'anatomical'
p899
sI900
S'subcellular'
p900
sI901
S'question'
p901
sI902
S'approved'
p902
sI903
S'camera'
p903
sI904
S'heritage'
p904
sI905
S'certification'
p905
sI906
S'specialty'
p906
sI907
S'link'
p907
sI908
S'russian'
p908
sI909
S'subsidiary'
p909
sI910
S'line'
p910
sI911
S'active'
p911
sI912
S'directed'
p912
sI913
S'planet'
p913
sI914
S'etc.'
p914
sI915
S'associated'
p915
sI916
S'defined'
p916
sI917
S'alumni'
p917
sI918
S'reservoirs'
p918
sI919
S'home'
p919
sI920
S'codes'
p920
sI921
S'club'
p921
sI922
S'accidental'
p922
sI923
S'develops'
p923
sI924
S'structure'
p924
sI925
S'land'
p925
sI926
S'attaining'
p926
sI927
S'partial'
p927
sI928
S'results'
p928
sI929
S'nuns'
p929
sI930
S'illustrated'
p930
sI931
S'concerned'
p931
sI932
S'literary'
p932
sI933
S'include'
p933
sI934
S'overlaps'
p934
sI935
S'jurisdiction'
p935
sI936
S'gender'
p936
sI937
S'tunnel'
p937
sI938
S'race'
p938
sI939
S'gauge'
p939
sI940
S'rivers'
p940
sI941
S'video'
p941
sI942
S'universities'
p942
sI943
S'index'
p943
sI944
S'plays'
p944
sI945
S'power'
p945
sI946
S'anthem'
p946
sI947
S'assisted'
p947
sI948
S'hereditary'
p948
sI949
S'cell'
p949
sI950
S'capital'
p950
sI951
S'ammunition'
p951
sI952
S'body'
p952
sI953
S'degree'
p953
sI954
S'exchange'
p954
sI955
S'respectively'
p955
sI956
S'spacing'
p956
sI957
S'invented'
p957
sI958
S'involved'
p958
sI959
S'maker'
p959
sI960
S'composed'
p960
sI961
S'named'
p961
sI962
S'claim'
p962
sI963
S'composer'
p963
sI964
S'causal'
p964
sI965
S'use'
p965
sI966
S'next'
p966
sI967
S'depicted'
p967
sI968
S'asteroid'
p968
sI969
S'vehicle'
p969
sI970
S'means'
p970
sI971
S'presiding'
p971
sI972
S'parliament'
p972
sI973
S'train'
p973
sI974
S'informally'
p974
sI975
S'central'
p975
sI976
S'appointed'
p976
sI977
S'high'
p977
sI978
S'crosses'
p978
sI979
S'animals'
p979
sI980
S'athlete'
p980
sI981
S'universe'
p981
sI982
S'something'
p982
sI983
S'streamed'
p983
sI984
S'patron'
p984
sI985
S'process'
p985
sI986
S'pharmacologically'
p986
sI987
S'depiction'
p987
sI988
S'native'
p988
sI989
S'educational'
p989
sI990
S'united'
p990
sI991
S'holds'
p991
sI992
S'arrangement'
p992
sI993
S'located'
p993
sI994
S'animal'
p994
sI995
S'instead'
p995
sI996
S'stock'
p996
sI997
S'collection'
p997
sI998
S'ethnic'
p998
sI999
S'chief'
p999
sI1000
S'least'
p1000
sI1001
S'producer'
p1001
sI1002
S'astronomical'
p1002
sI1003
S'produced'
p1003
sI1004
S'including'
p1004
sI1005
S'costume'
p1005
sI1006
S'outer'
p1006
sI1007
S'decay'
p1007
sI1008
S'holiday'
p1008
sI1009
S'pending'
p1009
sI1010
S'material'
p1010
sI1011
S'operator'
p1011
sI1012
S'property'
p1012
sI1013
S'day'
p1013
sI1014
S'adapts'
p1014
sI1015
S'storyboard'
p1015
sI1016
S'university'
p1016
sI1017
S'feast'
p1017
sI1018
S'identified'
p1018
sI1019
S'mode'
p1019
sI1020
S'identifier'
p1020
sI1021
S'related'
p1021
sI1022
S'intangible'
p1022
sI1023
S'sexual'
p1023
sI1024
S'special'
p1024
sI1025
S'category'
p1025
sI1026
S'cause'
p1026
sI1027
S'maintains'
p1027
sI1028
S'advisor'
p1028
sI1029
S'interaction'
p1029
sI1030
S'dubbed'
p1030
sI1031
S'route'
p1031
sI1032
S'owned'
p1032
sI1033
S'legislative'
p1033
sI1034
S"doesn't"
p1034
sI1035
S'publication'
p1035
sI1036
S'achieved'
p1036
sI1037
S'system'
p1037
sI1038
S'relations'
p1038
sI1039
S'final'
p1039
sI1040
S'stomach'
p1040
sI1041
S'chemicals'
p1041
sI1042
S'institution'
p1042
sI1043
S'armament'
p1043
sI1044
S'doctorate'
p1044
sI1045
S'partnership'
p1045
sI1046
S'element'
p1046
sI1047
S'border'
p1047
sI1048
S'linked'
p1048
sI1049
S'instrumentation'
p1049
sI1050
S'mechanism'
p1050
sI1051
S'instance'
p1051
sI1052
S'tracklist'
p1052
sI1053
S'innervate'
p1053
sI1054
S'harmful'
p1054
sI1055
S'connected'
p1055
sI1056
S'moveable'
p1056
sI1057
S'class'
p1057
sI1058
S'spaceflight'
p1058
sI1059
S'stranded'
p1059
sI1060
S'movie'
p1060
sI1061
S'wounded'
p1061
sI1062
S'painting'
p1062
sI1063
S'currently'
p1063
sI1064
S'electoral'
p1064
sI1065
S'agreed'
p1065
sI1066
S'taxonomic'
p1066
sI1067
S'based'
p1067
sI1068
S'winner'
p1068
sI1069
S'credited'
p1069
sI1070
S'employer'
p1070
sI1071
S'score'
p1071
sI1072
S'employed'
p1072
sI1073
S'local'
p1073
sI1074
S'photographs'
p1074
sI1075
S'monuments'
p1075
sI1076
S'mainly'
p1076
sI1077
S'photography'
p1077
sI1078
S'overall'
p1078
sI1079
S'sponsors'
p1079
sI1080
S'made'
p1080
sI1081
S'occupant'
p1081
sI1082
S'words'
p1082
sI1083
S'teams'
p1083
sI1084
S'influenced'
p1084
sI1085
S'view'
p1085
sI1086
S'national'
p1086
sI1087
S'terrain'
p1087
sI1088
S'operates'
p1088
sI1089
S'edition'
p1089
sI1090
S'operated'
p1090
sI1091
S'creating'
p1091
sI1092
S'written'
p1092
sI1093
S'proof'
p1093
sI1094
S'audiovisual'
p1094
sI1095
S'dubbing'
p1095
sI1096
S'job'
p1096
sI1097
S'key'
p1097
sI1098
S'configuration'
p1098
sI1099
S'problem'
p1099
sI1100
S'admin'
p1100
sI1101
S'equal'
p1101
sI1102
S'drug'
p1102
sI1103
S'fulfilled'
p1103
sI1104
S'etc'
p1104
sI1105
S'lyricist'
p1105
sI1106
S'distinguish'
p1106
sI1107
S'rpg'
p1107
sI1108
S'sequences'
p1108
sI1109
S'respect'
p1109
sI1110
S'powered'
p1110
sI1111
S'trademark'
p1111
sI1112
S'outflow'
p1112
sI1113
S'treat'
p1113
sI1114
S'recurring'
p1114
sI1115
S'corresponding'
p1115
sI1116
S'received'
p1116
sI1117
S'painted'
p1117
sI1118
S'ridden'
p1118
sI1119
S'tense'
p1119
sI1120
S'present'
p1120
sI1121
S'endemic'
p1121
sI1122
S'value'
p1122
sI1123
S'resident'
p1123
sI1124
S'site'
p1124
sI1125
S'surface'
p1125
sI1126
S'hardware'
p1126
sI1127
S'partner'
p1127
sI1128
S'orbital'
p1128
sI1129
S'facet'
p1129
sI1130
S'civilian'
p1130
sI1131
S'administration'
p1131
sI1132
S'member'
p1132
sI1133
S'adverse'
p1133
sI1134
S'parts'
p1134
sI1135
S'geographical'
p1135
sI1136
S'party'
p1136
sI1137
S'disciple'
p1137
sI1138
S'upon'
p1138
sI1139
S'effect'
p1139
sI1140
S'phd'
p1140
sI1141
S'student'
p1141
sI1142
S'indigenous'
p1142
sI1143
S'identity'
p1143
sI1144
S'weapon'
p1144
sI1145
S'patterns'
p1145
sI1146
S'position'
p1146
sI1147
S'audio'
p1147
sI1148
S'rocket'
p1148
sI1149
S'executive'
p1149
sI1150
S'domestic'
p1150
sI1151
S'sources'
p1151
sI1152
S'underlying'
p1152
sI1153
S'voltage'
p1153
sI1154
S'enterprise'
p1154
sI1155
S'rapid'
p1155
sI1156
S'lake'
p1156
sI1157
S'add'
p1157
sI1158
S'citizen'
p1158
sI1159
S'match'
p1159
sI1160
S'identical'
p1160
sI1161
S'branch'
p1161
sI1162
S'government'
p1162
sI1163
S'historic'
p1163
sI1164
S'like'
p1164
sI1165
S'agents'
p1165
sI1166
S'works'
p1166
sI1167
S'page'
p1167
sI1168
S'habitat'
p1168
sI1169
S'authority'
p1169
sI1170
S'hair'
p1170
sI1171
S'legislated'
p1171
sI1172
S'small'
p1172
sI1173
S'recognition'
p1173
sI1174
S'contested'
p1174
sI1175
S'lead'
p1175
sI1176
S'avoid'
p1176
sI1177
S'glacial'
p1177
sI1178
S'leader'
p1178
sI1179
S'selecting'
p1179
sI1180
S'journal'
p1180
sI1181
S'murdered'
p1181
sI1182
S'stage'
p1182
sI1183
S'sister'
p1183
sI1184
S'actual'
p1184
sI1185
S'carrier'
p1185
sI1186
S'recognizes'
p1186
sI1187
S'peak'
p1187
sI1188
S'previously'
p1188
sI1189
S'female'
p1189
sI1190
S'additional'
p1190
sI1191
S'museum'
p1191
sI1192
S'awarded'
p1192
sI1193
S'subsidiaries'
p1193
sI1194
S'function'
p1194
sI1195
S'brand'
p1195
sI1196
S'hq'
p1196
sI1197
S'directs'
p1197
sI1198
S'forward'
p1198
sI1199
S'construction'
p1199
sI1200
S'highest'
p1200
sI1201
S'partially'
p1201
sI1202
S'assassinated'
p1202
sI1203
S'places'
p1203
sI1204
S'whether'
p1204
sI1205
S'official'
p1205
sI1206
S'signed'
p1206
sI1207
S'record'
p1207
sI1208
S'decays'
p1208
sI1209
S'distribution'
p1209
sI1210
S'collectible'
p1210
sI1211
S'condition'
p1211
sI1212
S'crystals'
p1212
sI1213
S'education'
p1213
sI1214
S'chromosome'
p1214
sI1215
S'book'
p1215
sI1216
S'astrological'
p1216
sI1217
S'ultimately'
p1217
sI1218
S'rural'
p1218
sI1219
S'cpu'
p1219
sI1220
S'pupil'
p1220
sI1221
S'lives'
p1221
s.