(dp1
I0
c__builtin__
set
p2
((lp3
S'p3113'
p4
atRp5
sI1
g2
((lp6
S'p53'
p7
atRp8
sI2
g2
((lp9
S'p1039'
p10
atRp11
sI3
g2
((lp12
S'p1434'
p13
aS'p3137'
p14
atRp15
sI4
g2
((lp16
S'p123'
p17
atRp18
sI5
g2
((lp19
S'p26'
p20
aS'p451'
p21
atRp22
sI6
g2
((lp23
S'p69'
p24
atRp25
sI7
g2
((lp26
S'p702'
p27
aS'p688'
p28
atRp29
sI8
g2
((lp30
S'p1027'
p31
aS'p166'
p32
atRp33
sI9
g2
((lp34
S'p115'
p35
atRp36
sI10
g2
((lp37
S'p6'
p38
atRp39
sI11
g2
((lp40
S'p1340'
p41
atRp42
sI12
g2
((lp43
S'p190'
p44
atRp45
sI13
g2
((lp46
S'p2416'
p47
atRp48
sI14
g2
((lp49
S'p1038'
p50
atRp51
sI15
g2
((lp52
S'p669'
p53
atRp54
sI16
g2
((lp55
S'p3075'
p56
atRp57
sI17
g2
((lp58
S'p344'
p59
atRp60
sI18
g2
((lp61
S'p767'
p62
atRp63
sI19
g2
((lp64
S'p1057'
p65
atRp66
sI20
g2
((lp67
S'p3264'
p68
atRp69
sI21
g2
((lp70
S'p915'
p71
atRp72
sI22
g2
((lp73
S'p413'
p74
atRp75
sI23
g2
((lp76
S'p636'
p77
atRp78
sI24
g2
((lp79
g68
atRp80
sI25
g2
((lp81
S'p703'
p82
ag77
atRp83
sI26
g2
((lp84
S'p25'
p85
aS'p40'
p86
aS'p22'
p87
atRp88
sI27
g2
((lp89
S'p30'
p90
aS'p3094'
p91
aS'p1533'
p92
aS'p3081'
p93
atRp94
sI28
g2
((lp95
S'p3095'
p96
atRp97
sI29
g2
((lp98
S'p417'
p99
atRp100
sI30
g2
((lp101
S'p241'
p102
aS'p410'
p103
atRp104
sI31
g2
((lp105
S'p3156'
p106
aS'p289'
p107
aS'p2417'
p108
aS'p1013'
p109
aS'p2321'
p110
aS'p690'
p111
aS'p2643'
p112
atRp113
sI32
g2
((lp114
S'p36'
p115
aS'p1376'
p116
atRp117
sI33
g2
((lp118
S'p532'
p119
atRp120
sI34
g2
((lp121
S'p180'
p122
atRp123
sI35
g2
((lp124
g4
atRp125
sI36
g2
((lp126
S'p19'
p127
aS'p20'
p128
atRp129
sI37
g2
((lp130
S'p552'
p131
atRp132
sI38
g2
((lp133
S'p237'
p134
atRp135
sI39
g2
((lp136
S'p466'
p137
atRp138
sI40
g2
((lp139
S'p264'
p140
aS'p136'
p141
aS'p162'
p142
aS'p86'
p143
aS'p175'
p144
aS'p676'
p145
atRp146
sI41
g2
((lp147
S'p1454'
p148
ag10
aS'p689'
p149
aS'p122'
p150
aS'p183'
p151
aS'p412'
p152
aS'p105'
p153
aS'p427'
p154
aS'p2695'
p155
aS'p930'
p156
aS'p437'
p157
ag96
aS'p1853'
p158
aS'p556'
p159
aS'p1196'
p160
atRp161
sI42
g2
((lp162
S'p680'
p163
atRp164
sI43
g2
((lp165
S'p157'
p166
atRp167
sI44
g2
((lp168
S'p607'
p169
atRp170
sI45
g2
((lp171
S'p1411'
p172
ag32
aS'p1686'
p173
atRp174
sI46
g2
((lp175
g160
atRp176
sI47
g2
((lp177
S'p769'
p178
atRp179
sI48
g2
((lp180
g74
ag62
aS'p2962'
p181
atRp182
sI49
g2
((lp183
S'p3275'
p184
aS'p88'
p185
ag142
aS'p101'
p186
ag32
aS'p840'
p187
aS'p941'
p188
aS'p1445'
p189
aS'p725'
p190
aS'p1441'
p191
aS'p800'
p192
aS'p921'
p193
aS'p98'
p194
aS'p135'
p195
aS'p275'
p196
ag106
aS'p272'
p197
aS'p937'
p198
aS'p170'
p199
aS'p3174'
p200
ag144
aS'p495'
p201
ag13
aS'p1433'
p202
aS'p50'
p203
aS'p400'
p204
aS'p655'
p205
ag96
ag173
ag59
ag172
aS'p407'
p206
aS'p364'
p207
aS'p2860'
p208
aS'p750'
p209
aS'p58'
p210
atRp211
sI50
g2
((lp212
S'p2348'
p213
atRp214
sI51
g2
((lp215
S'p467'
p216
atRp217
sI52
g2
((lp218
S'p358'
p219
atRp220
sI53
g2
((lp221
S'p664'
p222
atRp223
sI54
g2
((lp224
g208
atRp225
sI55
g2
((lp226
S'p1990'
p227
aS'p710'
p228
atRp229
sI56
g2
((lp230
S'p1444'
p231
aS'p559'
p232
atRp233
sI57
g2
((lp234
S'p3093'
p235
atRp236
sI58
g2
((lp237
S'p609'
p238
aS'p276'
p239
ag232
aS'p706'
p240
atRp241
sI59
g2
((lp242
S'p47'
p243
aS'p197'
p244
atRp245
sI60
g2
((lp246
g192
atRp247
sI61
g2
((lp248
S'p61'
p249
atRp250
sI62
g2
((lp251
S'p159'
p252
atRp253
sI63
g2
((lp254
g189
aS'p172'
p255
ag13
aS'p1080'
p256
ag191
atRp257
sI64
g2
((lp258
S'p828'
p259
atRp260
sI65
g2
((lp261
S'p126'
p262
aS'p611'
p263
atRp264
sI66
g2
((lp265
g44
atRp266
sI67
g2
((lp267
g166
atRp268
sI68
g2
((lp269
S'p541'
p270
aS'p726'
p271
aS'p1001'
p272
aS'p39'
p273
aS'p1313'
p274
aS'p1308'
p275
ag252
atRp276
sI69
g2
((lp277
S'p184'
p278
atRp279
sI70
g2
((lp280
S'p560'
p281
atRp282
sI71
g2
((lp283
S'p735'
p284
atRp285
sI72
g2
((lp286
S'p282'
p287
atRp288
sI73
g2
((lp289
S'p2079'
p290
aS'p2554'
p291
ag197
atRp292
sI74
g2
((lp293
S'p2548'
p294
atRp295
sI75
g2
((lp296
S'p1403'
p297
aS'p870'
p298
aS'p566'
p299
atRp300
sI76
g2
((lp301
g294
atRp302
sI77
g2
((lp303
g219
atRp304
sI78
g2
((lp305
S'p54'
p306
ag163
aS'p1532'
p307
atRp308
sI79
g2
((lp309
S'p2522'
p310
atRp311
sI80
g2
((lp312
S'p119'
p313
atRp314
sI81
g2
((lp315
S'p127'
p316
atRp317
sI82
g2
((lp318
S'p1066'
p319
atRp320
sI83
g2
((lp321
S'p1040'
p322
atRp323
sI84
g2
((lp324
S'p1885'
p325
atRp326
sI85
g2
((lp327
S'p449'
p328
aS'p16'
p329
atRp330
sI86
g2
((lp331
S'p3306'
p332
ag196
aS'p914'
p333
atRp334
sI87
g2
((lp335
g238
ag232
atRp336
sI88
g2
((lp337
g142
atRp338
sI89
g2
((lp339
g255
aS'p1462'
p340
atRp341
sI90
g2
((lp342
S'p194'
p343
atRp344
sI91
g2
((lp345
g199
ag207
atRp346
sI92
g2
((lp347
g328
atRp348
sI93
g2
((lp349
S'p1344'
p350
ag47
atRp351
sI94
g2
((lp352
S'p376'
p353
atRp354
sI95
g2
((lp355
S'p504'
p356
ag193
atRp357
sI96
g2
((lp358
g153
ag299
ag103
atRp359
sI97
g2
((lp360
g195
atRp361
sI98
g2
((lp362
g99
atRp363
sI99
g2
((lp364
g284
ag205
ag91
aS'p3173'
p365
aS'p684'
p366
ag208
atRp367
sI100
g2
((lp368
S'p375'
p369
atRp370
sI101
g2
((lp371
g255
aS'p1389'
p372
atRp373
sI102
g2
((lp374
S'p1435'
p375
ag356
atRp376
sI103
g2
((lp377
S'p200'
p378
atRp379
sI104
g2
((lp380
g290
atRp381
sI105
g2
((lp382
g350
atRp383
sI106
g2
((lp384
g227
atRp385
sI107
g2
((lp386
S'p3092'
p387
atRp388
sI108
g2
((lp389
g169
aS'p1029'
p390
ag350
atRp391
sI109
g2
((lp392
g10
atRp393
sI110
g2
((lp394
S'p57'
p395
aS'p196'
p396
atRp397
sI111
g2
((lp398
g210
atRp399
sI112
g2
((lp400
S'p177'
p401
atRp402
sI113
g2
((lp403
g322
aS'p186'
p404
atRp405
sI114
g2
((lp406
g160
atRp407
sI115
g2
((lp408
S'p193'
p409
ag17
ag59
atRp410
sI116
g2
((lp411
g353
ag252
atRp412
sI117
g2
((lp413
g44
atRp414
sI118
g2
((lp415
g181
atRp416
sI119
g2
((lp417
g178
aS'p2176'
p418
aS'p2175'
p419
atRp420
sI120
g2
((lp421
g85
aS'p103'
p422
atRp423
sI121
g2
((lp424
g205
atRp425
sI122
g2
((lp426
S'p403'
p427
atRp428
sI123
g2
((lp429
g313
atRp430
sI124
g2
((lp431
g24
atRp432
sI125
g2
((lp433
g419
atRp434
sI126
g2
((lp435
S'p1050'
p436
aS'p780'
p437
aS'p1995'
p438
ag419
ag418
atRp439
sI127
g2
((lp440
S'p3263'
p441
atRp442
sI128
g2
((lp443
S'p3195'
p444
atRp445
sI129
g2
((lp446
g252
atRp447
sI130
g2
((lp448
S'p411'
p449
atRp450
sI131
g2
((lp451
S'p3216'
p452
atRp453
sI132
g2
((lp454
g68
atRp455
sI133
g2
((lp456
g145
atRp457
sI134
g2
((lp458
S'p3300'
p459
atRp460
sI135
g2
((lp461
g172
ag173
atRp462
sI136
g2
((lp463
g231
atRp464
sI137
g2
((lp465
g270
atRp466
sI138
g2
((lp467
S'p206'
p468
atRp469
sI139
g2
((lp470
g299
atRp471
sI140
g2
((lp472
g227
atRp473
sI141
g2
((lp474
g243
ag90
atRp475
sI142
g2
((lp476
S'p81'
p477
ag273
ag272
atRp478
sI143
g2
((lp479
g322
atRp480
sI144
g2
((lp481
S'p291'
p482
atRp483
sI145
g2
((lp484
S'p35'
p485
atRp486
sI146
g2
((lp487
g436
atRp488
sI147
g2
((lp489
g109
atRp490
sI148
g2
((lp491
g259
atRp492
sI149
g2
((lp493
g316
ag262
aS'p108'
p494
aS'p121'
p495
ag24
ag477
aS'p3150'
p496
aS'p129'
p497
aS'p27'
p498
ag20
ag193
ag310
aS'p1382'
p499
ag213
ag86
aS'p366'
p500
aS'p516'
p501
aS'p805'
p502
ag369
aS'p825'
p503
ag157
aS'p739'
p504
ag166
aS'p880'
p505
aS'p453'
p506
aS'p195'
p507
ag141
ag255
ag201
aS'p793'
p508
ag140
ag13
aS'p59'
p509
ag306
ag99
ag90
aS'p7'
p510
ag278
ag404
ag122
ag59
aS'p361'
p511
aS'p9'
p512
ag287
aS'p2354'
p513
aS'p408'
p514
ag273
aS'p144'
p515
aS'p462'
p516
aS'p520'
p517
atRp518
sI150
g2
((lp519
g90
atRp520
sI151
g2
((lp521
S'p1884'
p522
atRp523
sI152
g2
((lp524
S'p189'
p525
atRp526
sI153
g2
((lp527
g378
aS'p201'
p528
atRp529
sI154
g2
((lp530
g160
atRp531
sI155
g2
((lp532
S'p530'
p533
ag56
ag201
ag498
ag329
aS'p17'
p534
ag307
ag485
atRp535
sI156
g2
((lp536
S'p1923'
p537
atRp538
sI157
g2
((lp539
g109
atRp540
sI158
g2
((lp541
g154
atRp542
sI159
g2
((lp543
g515
atRp544
sI160
g2
((lp545
g14
atRp546
sI161
g2
((lp547
g31
atRp548
sI162
g2
((lp549
S'p97'
p550
ag102
ag7
atRp551
sI163
g2
((lp552
S'p2061'
p553
atRp554
sI164
g2
((lp555
g306
atRp556
sI165
g2
((lp557
S'p1416'
p558
atRp559
sI166
g2
((lp560
g515
ag109
atRp561
sI167
g2
((lp562
g107
atRp563
sI168
g2
((lp564
g35
atRp565
sI169
g2
((lp566
g150
atRp567
sI170
g2
((lp568
g152
ag4
atRp569
sI171
g2
((lp570
S'p1200'
p571
atRp572
sI172
g2
((lp573
g239
ag198
ag151
ag313
ag525
ag187
ag71
ag227
aS'p448'
p574
ag128
aS'p740'
p575
ag127
ag238
ag115
ag240
aS'p1071'
p576
ag252
atRp577
sI173
g2
((lp578
S'p3301'
p579
atRp580
sI174
g2
((lp581
S'p140'
p582
aS'p1576'
p583
ag21
atRp584
sI175
g2
((lp585
S'p789'
p586
atRp587
sI176
g2
((lp588
g178
atRp589
sI177
g2
((lp590
g85
ag86
aS'p398'
p591
ag87
atRp592
sI178
g2
((lp593
g494
atRp594
sI179
g2
((lp595
g328
atRp596
sI180
g2
((lp597
g427
atRp598
sI181
g2
((lp599
S'p518'
p600
ag272
atRp601
sI182
g2
((lp602
S'p1192'
p603
ag231
atRp604
sI183
g2
((lp605
S'p2239'
p606
atRp607
sI184
g2
((lp608
g152
ag190
atRp609
sI185
g2
((lp610
g574
atRp611
sI186
g2
((lp612
g178
atRp613
sI187
g2
((lp614
g74
ag306
aS'p118'
p615
ag506
aS'p765'
p616
atRp617
sI188
g2
((lp618
g497
atRp619
sI189
g2
((lp620
g93
atRp621
sI190
g2
((lp622
g186
atRp623
sI191
g2
((lp624
g4
atRp625
sI192
g2
((lp626
g313
atRp627
sI193
g2
((lp628
S'p2978'
p629
atRp630
sI194
g2
((lp631
S'p21'
p632
atRp633
sI195
g2
((lp634
g17
ag482
ag297
ag340
ag202
ag299
atRp635
sI196
g2
((lp636
g477
atRp637
sI197
g2
((lp638
S'p674'
p639
atRp640
sI198
g2
((lp641
g537
atRp642
sI199
g2
((lp643
g418
atRp644
sI200
g2
((lp645
g96
atRp646
sI201
g2
((lp647
g194
aS'p512'
p648
ag186
aS'p812'
p649
ag319
atRp650
sI202
g2
((lp651
S'p3279'
p652
atRp653
sI203
g2
((lp654
g255
atRp655
sI204
g2
((lp656
S'p169'
p657
atRp658
sI205
g2
((lp659
g298
ag143
aS'p826'
p660
ag144
ag459
atRp661
sI206
g2
((lp662
g10
atRp663
sI207
g2
((lp664
g307
ag47
atRp665
sI208
g2
((lp666
g356
atRp667
sI209
g2
((lp668
S'p1750'
p669
atRp670
sI210
g2
((lp671
g255
atRp672
sI211
g2
((lp673
g244
atRp674
sI212
g2
((lp675
g10
ag50
ag92
ag154
aS'p734'
p676
ag284
ag86
ag7
atRp677
sI213
g2
((lp678
S'p991'
p679
ag271
atRp680
sI214
g2
((lp681
g506
ag287
atRp682
sI215
g2
((lp683
g316
aS'p397'
p684
aS'p641'
p685
ag591
ag272
aS'p708'
p686
atRp687
sI216
g2
((lp688
S'p3320'
p689
atRp690
sI217
g2
((lp691
g256
ag191
atRp692
sI218
g2
((lp693
g53
atRp694
sI219
g2
((lp695
S'p610'
p696
atRp697
sI220
g2
((lp698
g343
atRp699
sI221
g2
((lp700
g437
atRp701
sI222
g2
((lp702
S'p3259'
p703
atRp704
sI223
g2
((lp705
g127
ag422
atRp706
sI224
g2
((lp707
g122
atRp708
sI225
g2
((lp709
g128
ag387
ag50
ag199
aS'p837'
p710
ag227
ag235
ag438
ag329
aS'p463'
p711
ag127
ag506
ag204
ag252
atRp712
sI226
g2
((lp713
g657
atRp714
sI227
g2
((lp715
S'p161'
p716
ag197
ag35
atRp717
sI228
g2
((lp718
g228
aS'p425'
p719
atRp720
sI229
g2
((lp721
g262
atRp722
sI230
g2
((lp723
g227
atRp724
sI231
g2
((lp725
g306
atRp726
sI232
g2
((lp727
g197
atRp728
sI233
g2
((lp729
g20
atRp730
sI234
g2
((lp731
g141
ag205
ag208
ag172
ag32
ag201
ag199
ag209
ag188
ag190
ag62
atRp732
sI235
g2
((lp733
g71
atRp734
sI236
g2
((lp735
g591
atRp736
sI237
g2
((lp737
g155
ag505
atRp738
sI238
g2
((lp739
g227
atRp740
sI239
g2
((lp741
g13
atRp742
sI240
g2
((lp743
g140
atRp744
sI241
g2
((lp745
S'p110'
p746
atRp747
sI242
g2
((lp748
S'p149'
p749
aS'p84'
p750
atRp751
sI243
g2
((lp752
g24
atRp753
sI244
g2
((lp754
g41
atRp755
sI245
g2
((lp756
S'p3190'
p757
atRp758
sI246
g2
((lp759
g231
atRp760
sI247
g2
((lp761
g306
ag273
atRp762
sI248
g2
((lp763
g85
ag86
ag87
atRp764
sI249
g2
((lp765
S'p479'
p766
atRp767
sI250
g2
((lp768
S'p1028'
p769
atRp770
sI251
g2
((lp771
g259
atRp772
sI252
g2
((lp773
S'p404'
p774
ag206
atRp775
sI253
g2
((lp776
g534
atRp777
sI254
g2
((lp778
g553
atRp779
sI255
g2
((lp780
g194
ag322
atRp781
sI256
g2
((lp782
g583
atRp783
sI257
g2
((lp784
g259
atRp785
sI258
g2
((lp786
g369
atRp787
sI259
g2
((lp788
g14
atRp789
sI260
g2
((lp790
S'p286'
p791
ag485
ag38
ag274
ag252
atRp792
sI261
g2
((lp793
g148
ag150
ag157
atRp794
sI262
g2
((lp795
g27
atRp796
sI263
g2
((lp797
g127
atRp798
sI264
g2
((lp799
g159
atRp800
sI265
g2
((lp801
g210
atRp802
sI266
g2
((lp803
g679
ag270
ag271
atRp804
sI267
g2
((lp805
S'p248'
p806
atRp807
sI268
g2
((lp808
g204
atRp809
sI269
g2
((lp810
g616
ag652
atRp811
sI270
g2
((lp812
g436
ag149
ag419
aS'p2293'
p813
atRp814
sI271
g2
((lp815
g517
ag356
ag107
atRp816
sI272
g2
((lp817
g239
ag93
ag497
atRp818
sI273
g2
((lp819
g155
atRp820
sI274
g2
((lp821
S'p3189'
p822
ag757
atRp823
sI275
g2
((lp824
g119
atRp825
sI276
g2
((lp826
g716
ag190
atRp827
sI277
g2
((lp828
S'p3161'
p829
atRp830
sI278
g2
((lp831
g187
ag340
atRp832
sI279
g2
((lp833
g190
ag506
aS'p371'
p834
atRp835
sI280
g2
((lp836
g711
aS'p485'
p837
aS'p749'
p838
atRp839
sI281
g2
((lp840
g837
atRp841
sI282
g2
((lp842
g632
atRp843
sI283
g2
((lp844
g332
ag322
ag197
atRp845
sI284
g2
((lp846
g537
atRp847
sI285
g2
((lp848
g387
atRp849
sI286
g2
((lp850
g499
atRp851
sI287
g2
((lp852
g629
atRp853
sI288
g2
((lp854
g128
atRp855
sI289
g2
((lp856
S'p488'
p857
atRp858
sI290
g2
((lp859
g31
atRp860
sI291
g2
((lp861
S'p421'
p862
atRp863
sI292
g2
((lp864
g31
atRp865
sI293
g2
((lp866
S'p658'
p867
atRp868
sI294
g2
((lp869
g791
atRp870
sI295
g2
((lp871
S'p137'
p872
atRp873
sI296
g2
((lp874
g791
aS'p505'
p875
atRp876
sI297
g2
((lp877
S'p1037'
p878
atRp879
sI298
g2
((lp880
g197
atRp881
sI299
g2
((lp882
g511
ag350
atRp883
sI300
g2
((lp884
g862
atRp885
sI301
g2
((lp886
g290
atRp887
sI302
g2
((lp888
g87
atRp889
sI303
g2
((lp890
g243
atRp891
sI304
g2
((lp892
g262
atRp893
sI305
g2
((lp894
g686
aS'p1383'
p895
ag116
atRp896
sI306
g2
((lp897
S'p3080'
p898
atRp899
sI307
g2
((lp900
g44
atRp901
sI308
g2
((lp902
g31
atRp903
sI309
g2
((lp904
S'p509'
p905
atRp906
sI310
g2
((lp907
g510
atRp908
sI311
g2
((lp909
g340
atRp910
sI312
g2
((lp911
g495
ag652
ag703
ag684
ag243
ag158
ag862
ag576
ag290
ag600
ag502
aS'p681'
p912
ag4
ag53
ag505
ag274
aS'p608'
p913
ag169
aS'p178'
p914
ag496
ag872
ag591
ag201
aS'p790'
p915
aS'p38'
p916
ag579
ag534
aS'p859'
p917
aS'p37'
p918
ag517
ag514
aS'p287'
p919
ag525
ag272
aS'p2439'
p920
ag867
ag639
atRp921
sI313
g2
((lp922
g74
ag307
ag35
ag791
ag615
ag228
ag306
atRp923
sI314
g2
((lp924
g710
atRp925
sI315
g2
((lp926
g558
atRp927
sI316
g2
((lp928
g119
ag356
atRp929
sI317
g2
((lp930
g639
atRp931
sI318
g2
((lp932
g243
atRp933
sI319
g2
((lp934
g500
atRp935
sI320
g2
((lp936
g401
atRp937
sI321
g2
((lp938
S'p841'
p939
ag325
ag115
atRp940
sI322
g2
((lp941
g506
atRp942
sI323
g2
((lp943
S'p647'
p944
atRp945
sI324
g2
((lp946
S'p2515'
p947
atRp948
sI325
g2
((lp949
g468
ag243
ag427
ag571
atRp950
sI326
g2
((lp951
g632
atRp952
sI327
g2
((lp953
g256
ag191
atRp954
sI328
g2
((lp955
g24
ag96
ag319
atRp956
sI329
g2
((lp957
g917
atRp958
sI330
g2
((lp959
g103
atRp960
sI331
g2
((lp961
g482
atRp962
sI332
g2
((lp963
g290
atRp964
sI333
g2
((lp965
g494
atRp966
sI334
g2
((lp967
g537
ag444
ag307
ag47
ag35
ag791
ag615
ag875
ag652
ag306
atRp968
sI335
g2
((lp969
g716
ag190
atRp970
sI336
g2
((lp971
g106
atRp972
sI337
g2
((lp973
g244
atRp974
sI338
g2
((lp975
g459
atRp976
sI339
g2
((lp977
g185
atRp978
sI340
g2
((lp979
g275
atRp980
sI341
g2
((lp981
g916
atRp982
sI342
g2
((lp983
g905
ag160
atRp984
sI343
g2
((lp985
g207
ag328
atRp986
sI344
g2
((lp987
g284
ag333
atRp988
sI345
g2
((lp989
g160
atRp990
sI346
g2
((lp991
g502
ag503
atRp992
sI347
g2
((lp993
g190
ag144
atRp994
sI348
g2
((lp995
S'p974'
p996
atRp997
sI349
g2
((lp998
g791
atRp999
sI350
g2
((lp1000
g141
ag193
atRp1001
sI351
g2
((lp1002
g499
atRp1003
sI352
g2
((lp1004
g378
atRp1005
sI353
g2
((lp1006
g227
ag154
ag155
ag366
atRp1007
sI354
g2
((lp1008
g68
atRp1009
sI355
g2
((lp1010
g109
atRp1011
sI356
g2
((lp1012
S'p1412'
p1013
atRp1014
sI357
g2
((lp1015
g28
ag372
ag766
aS'p176'
p1016
aS'p1056'
p1017
ag27
atRp1018
sI358
g2
((lp1019
g947
ag919
ag291
atRp1020
sI359
g2
((lp1021
g313
ag378
ag528
atRp1022
sI360
g2
((lp1023
g703
ag918
atRp1024
sI361
g2
((lp1025
g711
atRp1026
sI362
g2
((lp1027
g496
atRp1028
sI363
g2
((lp1029
g947
ag919
ag750
atRp1030
sI364
g2
((lp1031
g172
atRp1032
sI365
g2
((lp1033
g905
ag240
ag160
atRp1034
sI366
g2
((lp1035
g343
atRp1036
sI367
g2
((lp1037
g10
atRp1038
sI368
g2
((lp1039
g333
atRp1040
sI369
g2
((lp1041
g583
atRp1042
sI370
g2
((lp1043
g390
atRp1044
sI371
g2
((lp1045
g913
atRp1046
sI372
g2
((lp1047
g239
ag122
ag191
ag685
aS'p138'
p1048
ag497
aS'p3179'
p1049
ag256
ag65
ag115
aS'p629'
p1050
atRp1051
sI373
g2
((lp1052
g652
atRp1053
sI374
g2
((lp1054
g511
atRp1055
sI375
g2
((lp1056
g857
ag255
ag878
ag111
ag575
ag228
ag396
atRp1057
sI376
g2
((lp1058
g872
ag137
ag495
atRp1059
sI377
g2
((lp1060
g204
atRp1061
sI378
g2
((lp1062
g791
atRp1063
sI379
g2
((lp1064
g365
atRp1065
sI380
g2
((lp1066
g141
ag193
ag834
ag508
ag996
ag438
ag409
ag500
ag203
atRp1067
sI381
g2
((lp1068
g837
atRp1069
sI382
g2
((lp1070
S'p3085'
p1071
atRp1072
sI383
g2
((lp1073
S'p972'
p1074
ag537
ag173
ag522
ag10
ag669
ag53
ag710
ag652
aS'p459'
p1075
ag506
aS'p748'
p1076
atRp1077
sI384
g2
((lp1078
g365
atRp1079
sI385
g2
((lp1080
g96
atRp1081
sI386
g2
((lp1082
g387
atRp1083
sI387
g2
((lp1084
g166
atRp1085
sI388
g2
((lp1086
g216
atRp1087
sI389
g2
((lp1088
g676
ag284
ag92
ag206
ag297
ag1048
ag669
aS'p85'
p1089
ag299
atRp1090
sI390
g2
((lp1091
g155
atRp1092
sI391
g2
((lp1093
g679
atRp1094
sI392
g2
((lp1095
g917
atRp1096
sI393
g2
((lp1097
g710
ag669
atRp1098
sI394
g2
((lp1099
g209
atRp1100
sI395
g2
((lp1101
g191
atRp1102
sI396
g2
((lp1103
g369
ag111
atRp1104
sI397
g2
((lp1105
g511
ag867
atRp1106
sI398
g2
((lp1107
g160
atRp1108
sI399
g2
((lp1109
g284
atRp1110
sI400
g2
((lp1111
g449
atRp1112
sI401
g2
((lp1113
g24
atRp1114
sI402
g2
((lp1115
g343
atRp1116
sI403
g2
((lp1117
g140
atRp1118
sI404
g2
((lp1119
g898
atRp1120
sI405
g2
((lp1121
S'p277'
p1122
ag204
ag17
ag514
ag766
aS'p306'
p1123
atRp1124
sI406
g2
((lp1125
g1122
ag205
ag206
ag1013
ag287
ag207
ag422
ag920
ag918
atRp1126
sI407
g2
((lp1127
g1122
atRp1128
sI408
g2
((lp1129
g332
ag322
ag395
ag197
atRp1130
sI409
g2
((lp1131
g259
atRp1132
sI410
g2
((lp1133
S'p112'
p1134
ag239
aS'p1408'
p1135
ag365
aS'p2632'
p1136
ag575
ag198
ag482
ag313
ag525
aS'p931'
p1137
ag201
ag71
ag528
ag128
ag378
aS'p1427'
p1138
ag127
aS'p551'
p1139
ag240
ag576
atRp1140
sI411
g2
((lp1141
g390
atRp1142
sI412
g2
((lp1143
g329
atRp1144
sI413
g2
((lp1145
g249
ag284
ag38
ag92
ag297
ag422
ag606
atRp1146
sI414
g2
((lp1147
g201
atRp1148
sI415
g2
((lp1149
g441
ag111
atRp1150
sI416
g2
((lp1151
g719
atRp1152
sI417
g2
((lp1153
g190
atRp1154
sI418
g2
((lp1155
g116
atRp1156
sI419
g2
((lp1157
g522
ag1048
ag652
ag208
ag90
ag160
atRp1158
sI420
g2
((lp1159
g477
atRp1160
sI421
g2
((lp1161
g332
atRp1162
sI422
g2
((lp1163
g1135
ag1137
ag128
ag127
ag44
ag343
atRp1164
sI423
g2
((lp1165
g31
ag202
ag92
ag173
ag284
atRp1166
sI424
g2
((lp1167
g325
aS'p768'
p1168
ag343
atRp1169
sI425
g2
((lp1170
g685
atRp1171
sI426
g2
((lp1172
g10
ag806
atRp1173
sI427
g2
((lp1174
g111
atRp1175
sI428
g2
((lp1176
g44
atRp1177
sI429
g2
((lp1178
g93
ag757
atRp1179
sI430
g2
((lp1180
g41
atRp1181
sI431
g2
((lp1182
S'p113'
p1183
atRp1184
sI432
g2
((lp1185
g1135
ag328
ag579
atRp1186
sI433
g2
((lp1187
g204
ag196
atRp1188
sI434
g2
((lp1189
g515
atRp1190
sI435
g2
((lp1191
g1168
atRp1192
sI436
g2
((lp1193
g173
atRp1194
sI437
g2
((lp1195
g249
atRp1196
sI438
g2
((lp1197
g947
ag328
ag834
atRp1198
sI439
g2
((lp1199
g533
atRp1200
sI440
g2
((lp1201
g375
atRp1202
sI441
g2
((lp1203
g134
atRp1204
sI442
g2
((lp1205
g259
atRp1206
sI443
g2
((lp1207
g477
ag329
atRp1208
sI444
g2
((lp1209
g515
atRp1210
sI445
g2
((lp1211
g676
atRp1212
sI446
g2
((lp1213
g44
atRp1214
sI447
g2
((lp1215
g90
atRp1216
sI448
g2
((lp1217
g238
atRp1218
sI449
g2
((lp1219
g313
atRp1220
sI450
g2
((lp1221
g190
atRp1222
sI451
g2
((lp1223
g137
atRp1224
sI452
g2
((lp1225
g116
atRp1226
sI453
g2
((lp1227
g582
atRp1228
sI454
g2
((lp1229
g501
ag495
atRp1230
sI455
g2
((lp1231
g606
atRp1232
sI456
g2
((lp1233
g579
atRp1234
sI457
g2
((lp1235
g155
atRp1236
sI458
g2
((lp1237
g178
atRp1238
sI459
g2
((lp1239
S'p355'
p1240
ag838
atRp1241
sI460
g2
((lp1242
S'p1064'
p1243
atRp1244
sI461
g2
((lp1245
g82
ag294
atRp1246
sI462
g2
((lp1247
S'p816'
p1248
atRp1249
sI463
g2
((lp1250
g328
atRp1251
sI464
g2
((lp1252
g791
atRp1253
sI465
g2
((lp1254
g106
aS'p2747'
p1255
ag332
aS'p2363'
p1256
ag333
ag452
atRp1257
sI466
g2
((lp1258
g71
atRp1259
sI467
g2
((lp1260
g249
atRp1261
sI468
g2
((lp1262
g328
aS'p1431'
p1263
atRp1264
sI469
g2
((lp1265
g333
atRp1266
sI470
g2
((lp1267
g249
ag525
atRp1268
sI471
g2
((lp1269
g196
atRp1270
sI472
g2
((lp1271
g553
atRp1272
sI473
g2
((lp1273
g387
ag270
ag274
ag181
ag550
atRp1274
sI474
g2
((lp1275
g485
ag56
ag534
atRp1276
sI475
g2
((lp1277
S'p1399'
p1278
atRp1279
sI476
g2
((lp1280
g108
atRp1281
sI477
g2
((lp1282
g1256
ag1255
atRp1283
sI478
g2
((lp1284
g166
atRp1285
sI479
g2
((lp1286
g436
atRp1287
sI480
g2
((lp1288
g38
atRp1289
sI481
g2
((lp1290
g199
ag219
ag141
ag898
ag184
atRp1291
sI482
g2
((lp1292
g497
atRp1293
sI483
g2
((lp1294
g115
ag116
atRp1295
sI484
g2
((lp1296
g50
atRp1297
sI485
g2
((lp1298
g679
ag343
atRp1299
sI486
g2
((lp1300
g228
atRp1301
sI487
g2
((lp1302
g24
atRp1303
sI488
g2
((lp1304
g669
atRp1305
sI489
g2
((lp1306
g307
ag47
ag685
atRp1307
sI490
g2
((lp1308
g140
atRp1309
sI491
g2
((lp1310
g111
atRp1311
sI492
g2
((lp1312
g684
ag1240
aS'p171'
p1313
ag85
ag14
ag87
ag838
atRp1314
sI493
g2
((lp1315
g31
ag32
atRp1316
sI494
g2
((lp1317
g575
atRp1318
sI495
g2
((lp1319
g528
atRp1320
sI496
g2
((lp1321
g1139
atRp1322
sI497
g2
((lp1323
g1137
atRp1324
sI498
g2
((lp1325
g396
ag109
atRp1326
sI499
g2
((lp1327
g477
ag1243
atRp1328
sI500
g2
((lp1329
S'p414'
p1330
atRp1331
sI501
g2
((lp1332
g575
atRp1333
sI502
g2
((lp1334
S'p91'
p1335
atRp1336
sI503
g2
((lp1337
g516
ag41
ag522
atRp1338
sI504
g2
((lp1339
g213
atRp1340
sI505
g2
((lp1341
g166
atRp1342
sI506
g2
((lp1343
S'p1455'
p1344
atRp1345
sI507
g2
((lp1346
g387
ag390
atRp1347
sI508
g2
((lp1348
g10
atRp1349
sI509
g2
((lp1350
S'p737'
p1351
atRp1352
sI510
g2
((lp1353
g514
ag501
atRp1354
sI511
g2
((lp1355
g281
atRp1356
sI512
g2
((lp1357
g24
atRp1358
sI513
g2
((lp1359
g404
ag575
atRp1360
sI514
g2
((lp1361
g500
ag1255
atRp1362
sI515
g2
((lp1363
g606
ag239
atRp1364
sI516
g2
((lp1365
g14
atRp1366
sI517
g2
((lp1367
g340
atRp1368
sI518
g2
((lp1369
S'p3091'
p1370
atRp1371
sI519
g2
((lp1372
g387
ag716
atRp1373
sI520
g2
((lp1374
g528
atRp1375
sI521
g2
((lp1376
g1335
ag294
atRp1377
sI522
g2
((lp1378
g396
atRp1379
sI523
g2
((lp1380
g284
atRp1381
sI524
g2
((lp1382
g528
atRp1383
sI525
g2
((lp1384
g356
atRp1385
sI526
g2
((lp1386
g228
ag350
atRp1387
sI527
g2
((lp1388
g203
ag145
atRp1389
sI528
g2
((lp1390
g157
atRp1391
sI529
g2
((lp1392
g31
atRp1393
sI530
g2
((lp1394
g574
atRp1395
sI531
g2
((lp1396
g149
atRp1397
sI532
g2
((lp1398
S'p3148'
p1399
atRp1400
sI533
g2
((lp1401
g508
atRp1402
sI534
g2
((lp1403
g703
ag375
ag449
atRp1404
sI535
g2
((lp1405
g550
ag7
atRp1406
sI536
g2
((lp1407
g515
atRp1408
sI537
g2
((lp1409
g387
ag395
ag200
ag59
atRp1410
sI538
g2
((lp1411
g198
ag206
atRp1412
sI539
g2
((lp1413
g21
atRp1414
sI540
g2
((lp1415
g419
atRp1416
sI541
g2
((lp1417
S'p1312'
p1418
atRp1419
sI542
g2
((lp1420
g571
atRp1421
sI543
g2
((lp1422
g606
atRp1423
sI544
g2
((lp1424
g156
atRp1425
sI545
g2
((lp1426
g553
atRp1427
sI546
g2
((lp1428
g278
atRp1429
sI547
g2
((lp1430
g905
ag1335
ag128
ag160
atRp1431
sI548
g2
((lp1432
g227
atRp1433
sI549
g2
((lp1434
S'p1303'
p1435
atRp1436
sI550
g2
((lp1437
g418
atRp1438
sI551
g2
((lp1439
g441
atRp1440
sI552
g2
((lp1441
g10
atRp1442
sI553
g2
((lp1443
g31
atRp1444
sI554
g2
((lp1445
g44
atRp1446
sI555
g2
((lp1447
g1183
ag1137
atRp1448
sI556
g2
((lp1449
g716
atRp1450
sI557
g2
((lp1451
g243
ag44
atRp1452
sI558
g2
((lp1453
g1137
atRp1454
sI559
g2
((lp1455
g396
atRp1456
sI560
g2
((lp1457
g404
atRp1458
sI561
g2
((lp1459
g310
atRp1460
sI562
g2
((lp1461
g240
atRp1462
sI563
g2
((lp1463
g222
atRp1464
sI564
g2
((lp1465
g829
atRp1466
sI565
g2
((lp1467
g71
atRp1468
sI566
g2
((lp1469
g148
ag375
atRp1470
sI567
g2
((lp1471
g511
ag290
ag576
atRp1472
sI568
g2
((lp1473
g192
ag186
ag509
atRp1474
sI569
g2
((lp1475
g148
atRp1476
sI570
g2
((lp1477
g404
ag1016
atRp1478
sI571
g2
((lp1479
g508
ag192
aS'p802'
p1480
ag528
atRp1481
sI572
g2
((lp1482
g197
ag35
atRp1483
sI573
g2
((lp1484
g387
atRp1485
sI574
g2
((lp1486
g213
atRp1487
sI575
g2
((lp1488
g163
atRp1489
sI576
g2
((lp1490
g1016
atRp1491
sI577
g2
((lp1492
g244
atRp1493
sI578
g2
((lp1494
S'p452'
p1495
atRp1496
sI579
g2
((lp1497
g151
ag153
ag297
ag227
ag1313
ag82
atRp1498
sI580
g2
((lp1499
S'p1142'
p1500
atRp1501
sI581
g2
((lp1502
g231
ag1138
atRp1503
sI582
g2
((lp1504
g278
atRp1505
sI583
g2
((lp1506
g1183
atRp1507
sI584
g2
((lp1508
g1399
ag216
atRp1509
sI585
g2
((lp1510
g427
ag996
atRp1511
sI586
g2
((lp1512
g1123
atRp1513
sI587
g2
((lp1514
g329
atRp1515
sI588
g2
((lp1516
g298
atRp1517
sI589
g2
((lp1518
g553
atRp1519
sI590
g2
((lp1520
g155
atRp1521
sI591
g2
((lp1522
g270
atRp1523
sI592
g2
((lp1524
g419
atRp1525
sI593
g2
((lp1526
g1049
ag509
atRp1527
sI594
g2
((lp1528
g813
atRp1529
sI595
g2
((lp1530
g1138
atRp1531
sI596
g2
((lp1532
g452
atRp1533
sI597
g2
((lp1534
g629
atRp1535
sI598
g2
((lp1536
g44
atRp1537
sI599
g2
((lp1538
g427
atRp1539
sI600
g2
((lp1540
g238
ag232
atRp1541
sI601
g2
((lp1542
g746
atRp1543
sI602
g2
((lp1544
g813
atRp1545
sI603
g2
((lp1546
g509
atRp1547
sI604
g2
((lp1548
g498
atRp1549
sI605
g2
((lp1550
g140
atRp1551
sI606
g2
((lp1552
g208
atRp1553
sI607
g2
((lp1554
g791
ag813
ag255
ag110
ag875
atRp1555
sI608
g2
((lp1556
g102
atRp1557
sI609
g2
((lp1558
g396
atRp1559
sI610
g2
((lp1560
g1370
atRp1561
sI611
g2
((lp1562
g387
ag141
ag197
ag1255
ag142
ag716
ag1256
ag322
ag395
atRp1563
sI612
g2
((lp1564
g586
atRp1565
sI613
g2
((lp1566
g262
atRp1567
sI614
g2
((lp1568
g24
atRp1569
sI615
g2
((lp1570
g255
ag719
ag186
ag1495
atRp1571
sI616
g2
((lp1572
g1074
ag600
atRp1573
sI617
g2
((lp1574
S'p450'
p1575
atRp1576
sI618
g2
((lp1577
g583
atRp1578
sI619
g2
((lp1579
g834
atRp1580
sI620
g2
((lp1581
g187
atRp1582
sI621
g2
((lp1583
g119
ag356
atRp1584
sI622
g2
((lp1585
g20
atRp1586
sI623
g2
((lp1587
g409
ag137
ag750
atRp1588
sI624
g2
((lp1589
g178
atRp1590
sI625
g2
((lp1591
g898
atRp1592
sI626
g2
((lp1593
g322
atRp1594
sI627
g2
((lp1595
g1138
atRp1596
sI628
g2
((lp1597
g297
ag328
ag207
ag206
atRp1598
sI629
g2
((lp1599
g112
atRp1600
sI630
g2
((lp1601
g913
atRp1602
sI631
g2
((lp1603
g1134
atRp1604
sI632
g2
((lp1605
g259
atRp1606
sI633
g2
((lp1607
g378
atRp1608
sI634
g2
((lp1609
g496
atRp1610
sI635
g2
((lp1611
g1134
ag575
atRp1612
sI636
g2
((lp1613
g574
ag107
atRp1614
sI637
g2
((lp1615
g895
atRp1616
sI638
g2
((lp1617
g582
ag449
ag325
ag263
atRp1618
sI639
g2
((lp1619
g160
atRp1620
sI640
g2
((lp1621
g482
atRp1622
sI641
g2
((lp1623
g328
ag579
ag1263
ag834
atRp1624
sI642
g2
((lp1625
g834
atRp1626
sI643
g2
((lp1627
g145
atRp1628
sI644
g2
((lp1629
g1136
atRp1630
sI645
g2
((lp1631
g652
atRp1632
sI646
g2
((lp1633
g24
atRp1634
sI647
g2
((lp1635
g1344
ag537
aS'p1456'
p1636
ag513
atRp1637
sI648
g2
((lp1638
g35
atRp1639
sI649
g2
((lp1640
S'p682'
p1641
ag632
atRp1642
sI650
g2
((lp1643
g550
atRp1644
sI651
g2
((lp1645
g262
atRp1646
sI652
g2
((lp1647
g1399
atRp1648
sI653
g2
((lp1649
g511
atRp1650
sI654
g2
((lp1651
g204
atRp1652
sI655
g2
((lp1653
g422
atRp1654
sI656
g2
((lp1655
g290
ag766
ag1075
ag157
atRp1656
sI657
g2
((lp1657
g195
atRp1658
sI658
g2
((lp1659
g194
ag322
atRp1660
sI659
g2
((lp1661
g496
atRp1662
sI660
g2
((lp1663
g284
atRp1664
sI661
g2
((lp1665
g912
atRp1666
sI662
g2
((lp1667
g1123
ag390
atRp1668
sI663
g2
((lp1669
g17
atRp1670
sI664
g2
((lp1671
g356
atRp1672
sI665
g2
((lp1673
g74
atRp1674
sI666
g2
((lp1675
g188
ag1048
atRp1676
sI667
g2
((lp1677
g1183
ag1137
atRp1678
sI668
g2
((lp1679
g710
atRp1680
sI669
g2
((lp1681
g711
atRp1682
sI670
g2
((lp1683
g575
atRp1684
sI671
g2
((lp1685
g477
atRp1686
sI672
g2
((lp1687
g517
atRp1688
sI673
g2
((lp1689
g1013
ag422
atRp1690
sI674
g2
((lp1691
g240
ag834
atRp1692
sI675
g2
((lp1693
g239
ag68
atRp1694
sI676
g2
((lp1695
g1049
ag895
atRp1696
sI677
g2
((lp1697
g178
atRp1698
sI678
g2
((lp1699
g837
atRp1700
sI679
g2
((lp1701
g77
atRp1702
sI680
g2
((lp1703
g591
ag396
atRp1704
sI681
g2
((lp1705
g178
atRp1706
sI682
g2
((lp1707
g1495
ag1330
ag197
ag838
ag1240
atRp1708
sI683
g2
((lp1709
S'p163'
p1710
atRp1711
sI684
g2
((lp1712
g155
ag216
atRp1713
sI685
g2
((lp1714
g127
ag192
ag128
atRp1715
sI686
g2
((lp1716
g262
atRp1717
sI687
g2
((lp1718
g632
ag87
atRp1719
sI688
g2
((lp1720
g913
atRp1721
sI689
g2
((lp1722
g1335
ag806
atRp1723
sI690
g2
((lp1724
g112
atRp1725
sI691
g2
((lp1726
g509
atRp1727
sI692
g2
((lp1728
g86
atRp1729
sI693
g2
((lp1730
g441
atRp1731
sI694
g2
((lp1732
g191
atRp1733
sI695
g2
((lp1734
g62
atRp1735
sI696
g2
((lp1736
g1370
atRp1737
sI697
g2
((lp1738
g227
atRp1739
sI698
g2
((lp1740
g231
atRp1741
sI699
g2
((lp1742
g10
ag404
ag515
atRp1743
sI700
g2
((lp1744
g1074
atRp1745
sI701
g2
((lp1746
g59
atRp1747
sI702
g2
((lp1748
g158
atRp1749
sI703
g2
((lp1750
g366
atRp1751
sI704
g2
((lp1752
g468
atRp1753
sI705
g2
((lp1754
g197
ag206
atRp1755
sI706
g2
((lp1756
g227
atRp1757
sI707
g2
((lp1758
g774
ag307
atRp1759
sI708
g2
((lp1760
g606
atRp1761
sI709
g2
((lp1762
g387
ag652
atRp1763
sI710
g2
((lp1764
g153
atRp1765
sI711
g2
((lp1766
g914
ag1122
ag204
atRp1767
sI712
g2
((lp1768
g1575
atRp1769
sI713
g2
((lp1770
g1123
atRp1771
sI714
g2
((lp1772
g273
ag274
ag550
atRp1773
sI715
g2
((lp1774
g914
atRp1775
sI716
g2
((lp1776
g749
atRp1777
sI717
g2
((lp1778
g437
atRp1779
sI718
g2
((lp1780
g1049
ag115
ag272
atRp1781
sI719
g2
((lp1782
g21
ag834
atRp1783
sI720
g2
((lp1784
g657
atRp1785
sI721
g2
((lp1786
g813
atRp1787
sI722
g2
((lp1788
g499
atRp1789
sI723
g2
((lp1790
g153
atRp1791
sI724
g2
((lp1792
g82
ag505
atRp1793
sI725
g2
((lp1794
g496
ag418
ag419
atRp1795
sI726
g2
((lp1796
g511
atRp1797
sI727
g2
((lp1798
g263
atRp1799
sI728
g2
((lp1800
g239
ag537
ag47
ag1071
ag1048
ag93
ag188
ag710
ag508
ag310
ag228
ag222
ag350
aS'p1346'
p1801
atRp1802
sI729
g2
((lp1803
g834
atRp1804
sI730
g2
((lp1805
g110
atRp1806
sI731
g2
((lp1807
g436
atRp1808
sI732
g2
((lp1809
g13
atRp1810
sI733
g2
((lp1811
g329
atRp1812
sI734
g2
((lp1813
g152
atRp1814
sI735
g2
((lp1815
g263
atRp1816
sI736
g2
((lp1817
g160
atRp1818
sI737
g2
((lp1819
g7
atRp1820
sI738
g2
((lp1821
g228
ag372
atRp1822
sI739
g2
((lp1823
g916
ag441
ag356
atRp1824
sI740
g2
((lp1825
g102
ag603
ag872
ag579
ag495
atRp1826
sI741
g2
((lp1827
g369
ag574
atRp1828
sI742
g2
((lp1829
g508
ag684
ag192
ag649
ag378
atRp1830
sI743
g2
((lp1831
g141
atRp1832
sI744
g2
((lp1833
g68
atRp1834
sI745
g2
((lp1835
g184
atRp1836
sI746
g2
((lp1837
g210
atRp1838
sI747
g2
((lp1839
g766
atRp1840
sI748
g2
((lp1841
g1243
atRp1842
sI749
g2
((lp1843
g603
ag1135
ag244
atRp1844
sI750
g2
((lp1845
g216
atRp1846
sI751
g2
((lp1847
g163
atRp1848
sI752
g2
((lp1849
g235
atRp1850
sI753
g2
((lp1851
g915
ag502
ag418
ag419
atRp1852
sI754
g2
((lp1853
g10
ag21
atRp1854
sI755
g2
((lp1855
g905
ag160
atRp1856
sI756
g2
((lp1857
g1049
ag600
ag511
ag350
ag509
ag329
ag228
ag711
ag499
ag4
ag507
atRp1858
sI757
g2
((lp1859
g197
atRp1860
sI758
g2
((lp1861
g1050
atRp1862
sI759
g2
((lp1863
g1135
atRp1864
sI760
g2
((lp1865
g141
ag878
atRp1866
sI761
g2
((lp1867
g156
atRp1868
sI762
g2
((lp1869
g1048
atRp1870
sI763
g2
((lp1871
g501
atRp1872
sI764
g2
((lp1873
g294
atRp1874
sI765
g2
((lp1875
g152
atRp1876
sI766
g2
((lp1877
g1075
atRp1878
sI767
g2
((lp1879
g750
atRp1880
sI768
g2
((lp1881
g606
atRp1882
sI769
g2
((lp1883
g418
ag419
atRp1884
sI770
g2
((lp1885
g172
aS'p2453'
p1886
atRp1887
sI771
g2
((lp1888
g271
atRp1889
sI772
g2
((lp1890
g185
ag409
ag404
ag1016
atRp1891
sI773
g2
((lp1892
g122
ag191
aS'p106'
p1893
ag875
ag143
ag256
ag145
atRp1894
sI774
g2
((lp1895
g328
atRp1896
sI775
g2
((lp1897
g263
atRp1898
sI776
g2
((lp1899
g606
atRp1900
sI777
g2
((lp1901
g586
atRp1902
sI778
g2
((lp1903
g169
atRp1904
sI779
g2
((lp1905
g210
atRp1906
sI780
g2
((lp1907
g409
ag404
atRp1908
sI781
g2
((lp1909
g155
atRp1910
sI782
g2
((lp1911
g195
ag141
atRp1912
sI783
g2
((lp1913
g149
atRp1914
sI784
g2
((lp1915
g112
atRp1916
sI785
g2
((lp1917
g528
atRp1918
sI786
g2
((lp1919
g216
atRp1920
sI787
g2
((lp1921
g533
ag502
atRp1922
sI788
g2
((lp1923
g1893
ag186
ag719
atRp1924
sI789
g2
((lp1925
g210
ag145
atRp1926
sI790
g2
((lp1927
g209
atRp1928
sI791
g2
((lp1929
g511
atRp1930
sI792
g2
((lp1931
g194
atRp1932
sI793
g2
((lp1933
g227
atRp1934
sI794
g2
((lp1935
g905
atRp1936
sI795
g2
((lp1937
g192
atRp1938
sI796
g2
((lp1939
g719
ag96
atRp1940
sI797
g2
((lp1941
g468
ag427
ag996
aS'p469'
p1942
atRp1943
sI798
g2
((lp1944
g143
atRp1945
sI799
g2
((lp1946
g187
ag287
atRp1947
sI800
g2
((lp1948
g898
ag200
ag878
ag507
atRp1949
sI801
g2
((lp1950
g199
ag173
atRp1951
sI802
g2
((lp1952
g583
atRp1953
sI803
g2
((lp1954
g119
ag191
ag1893
ag186
ag333
ag256
atRp1955
sI804
g2
((lp1956
g436
ag917
atRp1957
sI805
g2
((lp1958
g231
ag1138
atRp1959
sI806
g2
((lp1960
g122
atRp1961
sI807
g2
((lp1962
g509
atRp1963
sI808
g2
((lp1964
g14
atRp1965
sI809
g2
((lp1966
g208
ag507
atRp1967
sI810
g2
((lp1968
g553
atRp1969
sI811
g2
((lp1970
g50
atRp1971
sI812
g2
((lp1972
g375
atRp1973
sI813
g2
((lp1974
g151
atRp1975
sI814
g2
((lp1976
g495
atRp1977
sI815
g2
((lp1978
g141
atRp1979
sI816
g2
((lp1980
g216
atRp1981
sI817
g2
((lp1982
g615
ag444
atRp1983
sI818
g2
((lp1984
g676
ag92
atRp1985
sI819
g2
((lp1986
g196
atRp1987
sI820
g2
((lp1988
g660
atRp1989
sI821
g2
((lp1990
g240
atRp1991
sI822
g2
((lp1992
g231
ag444
ag62
ag696
ag1138
atRp1993
sI823
g2
((lp1994
g1135
atRp1995
sI824
g2
((lp1996
g111
atRp1997
sI825
g2
((lp1998
g24
atRp1999
sI826
g2
((lp2000
g582
ag325
ag686
atRp2001
sI827
g2
((lp2002
g356
ag107
atRp2003
sI828
g2
((lp2004
g249
ag189
atRp2005
sI829
g2
((lp2006
g17
atRp2007
sI830
g2
((lp2008
g322
atRp2009
sI831
g2
((lp2010
g1500
ag273
ag274
ag343
aS'p102'
p2011
atRp2012
sI832
g2
((lp2013
g1480
atRp2014
sI833
g2
((lp2015
g1278
atRp2016
sI834
g2
((lp2017
g189
ag13
ag502
atRp2018
sI835
g2
((lp2019
g1049
ag14
atRp2020
sI836
g2
((lp2021
g750
atRp2022
sI837
g2
((lp2023
g313
atRp2024
sI838
g2
((lp2025
g1139
atRp2026
sI839
g2
((lp2027
g1138
atRp2028
sI840
g2
((lp2029
g32
atRp2030
sI841
g2
((lp2031
g1075
atRp2032
sI842
g2
((lp2033
g343
atRp2034
sI843
g2
((lp2035
g905
atRp2036
sI844
g2
((lp2037
g2011
atRp2038
sI845
g2
((lp2039
g216
atRp2040
sI846
g2
((lp2041
g190
ag328
ag579
ag834
atRp2042
sI847
g2
((lp2043
g202
atRp2044
sI848
g2
((lp2045
g436
atRp2046
sI849
g2
((lp2047
g401
atRp2048
sI850
g2
((lp2049
g255
atRp2050
sI851
g2
((lp2051
g90
atRp2052
sI852
g2
((lp2053
g1335
ag255
atRp2054
sI853
g2
((lp2055
g298
ag660
atRp2056
sI854
g2
((lp2057
g169
atRp2058
sI855
g2
((lp2059
g1313
ag112
atRp2060
sI856
g2
((lp2061
g387
ag496
ag404
ag418
ag495
ag284
ag501
ag297
ag806
ag1076
ag287
ag710
ag669
ag500
ag916
ag290
ag109
ag504
ag766
ag240
ag515
atRp2062
sI857
g2
((lp2063
g504
atRp2064
sI858
g2
((lp2065
g1942
ag996
atRp2066
sI859
g2
((lp2067
g290
atRp2068
sI860
g2
((lp2069
g27
ag294
ag28
ag163
ag366
atRp2070
sI861
g2
((lp2071
g366
atRp2072
sI862
g2
((lp2073
g31
atRp2074
sI863
g2
((lp2075
g262
ag184
ag102
ag648
ag186
ag422
ag459
ag185
ag558
ag103
ag1278
ag878
ag1168
ag1480
ag503
ag166
ag169
ag131
ag62
ag1139
ag222
ag21
ag1076
ag914
ag195
ag872
ag1335
ag313
ag200
ag550
ag606
ag322
ag31
ag750
ag769
ag390
ag319
ag1344
ag278
ag676
ag307
ag59
ag947
ag1013
ag350
ag791
ag1435
ag271
ag137
ag275
atRp2076
sI864
g2
((lp2077
g262
ag657
ag185
ag17
ag494
ag689
ag449
ag582
ag503
ag575
ag409
ag62
ag1495
ag838
ag872
ag35
ag31
ag769
ag148
ag558
ag1500
ag228
ag711
ag137
ag350
atRp2078
sI865
g2
((lp2079
g1075
atRp2080
sI866
g2
((lp2081
g606
atRp2082
sI867
g2
((lp2083
g47
atRp2084
sI868
g2
((lp2085
g409
atRp2086
sI869
g2
((lp2087
g188
ag806
ag404
ag575
atRp2088
sI870
g2
((lp2089
g38
ag115
ag116
atRp2090
sI871
g2
((lp2091
g913
atRp2092
sI872
g2
((lp2093
g766
atRp2094
sI873
g2
((lp2095
g239
ag116
ag895
ag686
ag243
ag115
atRp2096
sI874
g2
((lp2097
g508
atRp2098
sI875
g2
((lp2099
g204
ag106
ag17
ag514
ag898
ag333
ag452
ag774
ag62
ag395
atRp2100
sI876
g2
((lp2101
g485
atRp2102
sI877
g2
((lp2103
g7
atRp2104
sI878
g2
((lp2105
g459
atRp2106
sI879
g2
((lp2107
g537
atRp2108
sI880
g2
((lp2109
g205
atRp2110
sI881
g2
((lp2111
g4
atRp2112
sI882
g2
((lp2113
g686
atRp2114
sI883
g2
((lp2115
g1495
atRp2116
sI884
g2
((lp2117
g13
atRp2118
sI885
g2
((lp2119
g449
atRp2120
sI886
g2
((lp2121
g1134
ag582
ag56
ag96
atRp2122
sI887
g2
((lp2123
g603
ag477
atRp2124
sI888
g2
((lp2125
g1248
atRp2126
sI889
g2
((lp2127
g239
ag510
ag495
ag199
ag512
ag499
ag498
ag20
ag256
ag769
ag273
ag86
atRp2128
sI890
g2
((lp2129
g505
atRp2130
sI891
g2
((lp2131
g1942
atRp2132
sI892
g2
((lp2133
g996
atRp2134
sI893
g2
((lp2135
g822
atRp2136
sI894
g2
((lp2137
g152
atRp2138
sI895
g2
((lp2139
g192
ag508
ag178
ag21
atRp2140
sI896
g2
((lp2141
g511
ag657
ag505
ag47
atRp2142
sI897
g2
((lp2143
g333
atRp2144
sI898
g2
((lp2145
g62
atRp2146
sI899
g2
((lp2147
g822
ag757
atRp2148
sI900
g2
((lp2149
g912
atRp2150
sI901
g2
((lp2151
g1313
atRp2152
sI902
g2
((lp2153
g915
atRp2154
sI903
g2
((lp2155
g716
atRp2156
sI904
g2
((lp2157
g703
ag375
ag1636
atRp2158
sI905
g2
((lp2159
g372
atRp2160
sI906
g2
((lp2161
g438
atRp2162
sI907
g2
((lp2163
g1344
ag189
ag284
ag219
ag652
ag1636
ag813
atRp2164
sI908
g2
((lp2165
g90
atRp2166
sI909
g2
((lp2167
g1240
ag838
atRp2168
sI910
g2
((lp2169
g477
ag600
atRp2170
sI911
g2
((lp2171
g198
ag178
atRp2172
sI912
g2
((lp2173
g395
atRp2174
sI913
g2
((lp2175
g396
atRp2176
sI914
g2
((lp2177
g1351
ag62
ag898
ag378
ag1138
atRp2178
sI915
g2
((lp2179
g140
ag195
ag96
ag1049
ag144
ag669
ag508
ag920
ag571
atRp2180
sI916
g2
((lp2181
g155
atRp2182
sI917
g2
((lp2183
g24
atRp2184
sI918
g2
((lp2185
g1942
atRp2186
sI919
g2
((lp2187
g356
ag35
atRp2188
sI920
g2
((lp2189
g28
atRp2190
sI921
g2
((lp2191
g791
ag306
atRp2192
sI922
g2
((lp2193
g606
atRp2194
sI923
g2
((lp2195
g91
atRp2196
sI924
g2
((lp2197
g749
ag409
ag822
atRp2198
sI925
g2
((lp2199
g243
atRp2200
sI926
g2
((lp2201
g449
atRp2202
sI927
g2
((lp2203
g499
atRp2204
sI928
g2
((lp2205
g108
atRp2206
sI929
g2
((lp2207
g263
atRp2208
sI930
g2
((lp2209
g746
atRp2210
sI931
g2
((lp2211
g438
atRp2212
sI932
g2
((lp2213
g141
ag192
atRp2214
sI933
g2
((lp2215
g1013
ag7
atRp2216
sI934
g2
((lp2217
g1049
atRp2218
sI935
g2
((lp2219
g272
atRp2220
sI936
g2
((lp2221
g632
atRp2222
sI937
g2
((lp2223
g401
atRp2224
sI938
g2
((lp2225
g537
ag110
ag696
ag108
atRp2226
sI939
g2
((lp2227
g1243
atRp2228
sI940
g2
((lp2229
g528
atRp2230
sI941
g2
((lp2231
g106
ag898
ag333
ag774
ag452
ag190
ag17
ag395
atRp2232
sI942
g2
((lp2233
g112
atRp2234
sI943
g2
((lp2235
g193
atRp2236
sI944
g2
((lp2237
g306
ag615
ag1435
atRp2238
sI945
g2
((lp2239
g501
ag38
atRp2240
sI946
g2
((lp2241
g1089
atRp2242
sI947
g2
((lp2243
g62
atRp2244
sI948
g2
((lp2245
g550
atRp2246
sI949
g2
((lp2247
g912
atRp2248
sI950
g2
((lp2249
g115
ag116
atRp2250
sI951
g2
((lp2251
g504
atRp2252
sI952
g2
((lp2253
g857
ag684
ag38
ag353
ag313
ag591
ag340
ag468
ag77
ag427
ag240
ag343
atRp2254
sI953
g2
((lp2255
g648
atRp2256
sI954
g2
((lp2257
g1330
atRp2258
sI955
g2
((lp2259
g109
atRp2260
sI956
g2
((lp2261
g1243
atRp2262
sI957
g2
((lp2263
g249
atRp2264
sI958
g2
((lp2265
g1641
atRp2266
sI959
g2
((lp2267
g199
atRp2268
sI960
g2
((lp2269
g143
atRp2270
sI961
g2
((lp2271
g1048
ag206
atRp2272
sI962
g2
((lp2273
g806
ag4
ag600
atRp2274
sI963
g2
((lp2275
g145
ag143
atRp2276
sI964
g2
((lp2277
g813
atRp2278
sI965
g2
((lp2279
g537
ag143
ag652
ag20
ag632
ag160
ag50
ag53
ag506
ag21
ag239
ag141
ag905
ag1335
ag522
ag90
ag4
ag235
ag387
ag92
ag206
ag719
ag875
ag500
ag228
ag711
ag145
atRp2280
sI966
g2
((lp2281
g468
ag243
ag270
ag244
atRp2282
sI967
g2
((lp2283
g122
atRp2284
sI968
g2
((lp2285
g396
atRp2286
sI969
g2
((lp2287
g235
ag369
ag390
atRp2288
sI970
g2
((lp2289
g255
atRp2290
sI971
g2
((lp2291
g857
atRp2292
sI972
g2
((lp2293
g711
atRp2294
sI973
g2
((lp2295
g232
atRp2296
sI974
g2
((lp2297
g44
atRp2298
sI975
g2
((lp2299
g505
atRp2300
sI976
g2
((lp2301
g657
ag1076
atRp2302
sI977
g2
((lp2303
g255
atRp2304
sI978
g2
((lp2305
g401
atRp2306
sI979
g2
((lp2307
g227
atRp2308
sI980
g2
((lp2309
g47
atRp2310
sI981
g2
((lp2311
g189
ag13
ag256
atRp2312
sI982
g2
((lp2313
g586
ag281
atRp2314
sI983
g2
((lp2315
g579
atRp2316
sI984
g2
((lp2317
g99
atRp2318
sI985
g2
((lp2319
g1641
ag449
ag290
ag1017
atRp2320
sI986
g2
((lp2321
g178
atRp2322
sI987
g2
((lp2323
g122
atRp2324
sI988
g2
((lp2325
g1013
ag422
atRp2326
sI989
g2
((lp2327
g24
atRp2328
sI990
g2
((lp2329
g112
atRp2330
sI991
g2
((lp2331
g273
ag648
ag275
atRp2332
sI992
g2
((lp2333
g629
atRp2334
sI993
g2
((lp2335
g239
ag353
ag525
ag862
ag468
ag53
ag90
ag240
atRp2336
sI994
g2
((lp2337
g227
ag436
ag632
atRp2338
sI995
g2
((lp2339
g127
ag875
ag128
atRp2340
sI996
g2
((lp2341
g629
ag1330
atRp2342
sI997
g2
((lp2343
g507
atRp2344
sI998
g2
((lp2345
g711
ag255
atRp2346
sI999
g2
((lp2347
g657
ag485
atRp2348
sI1000
g2
((lp2349
g1048
atRp2350
sI1001
g2
((lp2351
g142
ag1016
ag1263
atRp2352
sI1002
g2
((lp2353
g353
ag684
ag591
atRp2354
sI1003
g2
((lp2355
g898
ag197
ag1017
atRp2356
sI1004
g2
((lp2357
g328
atRp2358
sI1005
g2
((lp2359
g947
atRp2360
sI1006
g2
((lp2361
g369
atRp2362
sI1007
g2
((lp2363
g1248
atRp2364
sI1008
g2
((lp2365
g710
atRp2366
sI1009
g2
((lp2367
g160
atRp2368
sI1010
g2
((lp2369
g404
ag1017
atRp2370
sI1011
g2
((lp2371
g872
ag495
atRp2372
sI1012
g2
((lp2373
g387
ag10
ag284
ag199
ag537
ag109
ag511
ag710
atRp2374
sI1013
g2
((lp2375
g939
ag496
ag710
ag669
atRp2376
sI1014
g2
((lp2377
g205
atRp2378
sI1015
g2
((lp2379
g184
atRp2380
sI1016
g2
((lp2381
g24
atRp2382
sI1017
g2
((lp2383
g939
atRp2384
sI1018
g2
((lp2385
g502
atRp2386
sI1019
g2
((lp2387
g774
atRp2388
sI1020
g2
((lp2389
g281
atRp2390
sI1021
g2
((lp2391
g92
ag513
atRp2392
sI1022
g2
((lp2393
g703
atRp2394
sI1023
g2
((lp2395
g1335
ag632
atRp2396
sI1024
g2
((lp2397
g160
atRp2398
sI1025
g2
((lp2399
g571
atRp2400
sI1026
g2
((lp2401
g905
ag259
aS'p1542'
p2402
atRp2403
sI1027
g2
((lp2404
g340
atRp2405
sI1028
g2
((lp2406
g278
atRp2407
sI1029
g2
((lp2408
g178
atRp2409
sI1030
g2
((lp2410
g190
atRp2411
sI1031
g2
((lp2412
g77
ag231
atRp2413
sI1032
g2
((lp2414
g316
ag838
atRp2415
sI1033
g2
((lp2416
g343
atRp2417
sI1034
g2
((lp2418
g4
atRp2419
sI1035
g2
((lp2420
g482
atRp2421
sI1036
g2
((lp2422
g103
atRp2423
sI1037
g2
((lp2424
g444
ag106
ag156
ag1255
ag511
ag332
ag287
ag1256
ag159
ag452
ag68
ag329
ag1123
ag571
atRp2425
sI1038
g2
((lp2426
g533
atRp2427
sI1039
g2
((lp2428
g576
atRp2429
sI1040
g2
((lp2430
g905
atRp2431
sI1041
g2
((lp2432
g606
atRp2433
sI1042
g2
((lp2434
g24
ag222
ag837
ag343
atRp2435
sI1043
g2
((lp2436
g517
atRp2437
sI1044
g2
((lp2438
g278
atRp2439
sI1045
g2
((lp2440
g44
atRp2441
sI1046
g2
((lp2442
g686
atRp2443
sI1047
g2
((lp2444
g243
atRp2445
sI1048
g2
((lp2446
g272
atRp2447
sI1049
g2
((lp2448
g298
atRp2449
sI1050
g2
((lp2450
g813
atRp2451
sI1051
g2
((lp2452
g262
ag1370
atRp2453
sI1052
g2
((lp2454
g867
atRp2455
sI1053
g2
((lp2456
g822
atRp2457
sI1054
g2
((lp2458
g606
atRp2459
sI1055
g2
((lp2460
g477
atRp2461
sI1056
g2
((lp2462
g239
atRp2463
sI1057
g2
((lp2464
g91
ag107
atRp2465
sI1058
g2
((lp2466
g1138
atRp2467
sI1059
g2
((lp2468
g294
atRp2469
sI1060
g2
((lp2470
g395
ag1256
ag1263
ag197
atRp2471
sI1061
g2
((lp2472
g166
atRp2473
sI1062
g2
((lp2474
g122
atRp2475
sI1063
g2
((lp2476
g306
ag273
atRp2477
sI1064
g2
((lp2478
g1168
atRp2479
sI1065
g2
((lp2480
g1335
ag255
atRp2481
sI1066
g2
((lp2482
g153
ag154
atRp2483
sI1067
g2
((lp2484
g299
ag14
ag515
atRp2485
sI1068
g2
((lp2486
g1801
atRp2487
sI1069
g2
((lp2488
g184
ag200
atRp2489
sI1070
g2
((lp2490
g494
atRp2491
sI1071
g2
((lp2492
g62
ag143
atRp2493
sI1072
g2
((lp2494
g514
ag298
ag494
atRp2495
sI1073
g2
((lp2496
g343
atRp2497
sI1074
g2
((lp2498
g553
atRp2499
sI1075
g2
((lp2500
g1636
atRp2501
sI1076
g2
((lp2502
g193
atRp2503
sI1077
g2
((lp2504
g59
atRp2505
sI1078
g2
((lp2506
g652
atRp2507
sI1079
g2
((lp2508
g917
atRp2509
sI1080
g2
((lp2510
g185
ag806
ag1016
ag290
ag109
ag404
atRp2511
sI1081
g2
((lp2512
g137
atRp2513
sI1082
g2
((lp2514
g145
atRp2515
sI1083
g2
((lp2516
g306
ag537
atRp2517
sI1084
g2
((lp2518
g1351
atRp2519
sI1085
g2
((lp2520
g365
atRp2521
sI1086
g2
((lp2522
g38
ag1089
atRp2523
sI1087
g2
((lp2524
g239
ag240
atRp2525
sI1088
g2
((lp2526
g872
atRp2527
sI1089
g2
((lp2528
g482
ag1050
atRp2529
sI1090
g2
((lp2530
g872
ag495
atRp2531
sI1091
g2
((lp2532
g387
atRp2533
sI1092
g2
((lp2534
g1013
ag203
atRp2535
sI1093
g2
((lp2536
g255
atRp2537
sI1094
g2
((lp2538
g387
ag452
ag106
atRp2539
sI1095
g2
((lp2540
g190
atRp2541
sI1096
g2
((lp2542
g387
atRp2543
sI1097
g2
((lp2544
g508
ag660
atRp2545
sI1098
g2
((lp2546
g441
atRp2547
sI1099
g2
((lp2548
g436
atRp2549
sI1100
g2
((lp2550
g252
atRp2551
sI1101
g2
((lp2552
g243
atRp2553
sI1102
g2
((lp2554
g178
ag418
atRp2555
sI1103
g2
((lp2556
g274
atRp2557
sI1104
g2
((lp2558
g947
atRp2559
sI1105
g2
((lp2560
g143
atRp2561
sI1106
g2
((lp2562
g669
atRp2563
sI1107
g2
((lp2564
g452
atRp2565
sI1108
g2
((lp2566
g322
atRp2567
sI1109
g2
((lp2568
g109
atRp2569
sI1110
g2
((lp2570
g514
atRp2571
sI1111
g2
((lp2572
g140
atRp2573
sI1112
g2
((lp2574
g528
atRp2575
sI1113
g2
((lp2576
g418
atRp2577
sI1114
g2
((lp2578
g710
atRp2579
sI1115
g2
((lp2580
g719
atRp2581
sI1116
g2
((lp2582
g172
ag32
ag173
atRp2583
sI1117
g2
((lp2584
g119
atRp2585
sI1118
g2
((lp2586
g1370
atRp2587
sI1119
g2
((lp2588
S'p3103'
p2589
atRp2590
sI1120
g2
((lp2591
g227
ag912
ag191
atRp2592
sI1121
g2
((lp2593
g151
atRp2594
sI1122
g2
((lp2595
g235
ag240
ag216
ag1075
ag272
atRp2596
sI1123
g2
((lp2597
g227
ag1139
atRp2598
sI1124
g2
((lp2599
g375
ag574
atRp2600
sI1125
g2
((lp2601
g616
atRp2602
sI1126
g2
((lp2603
g1123
atRp2604
sI1127
g2
((lp2605
g44
ag21
atRp2606
sI1128
g2
((lp2607
g396
atRp2608
sI1129
g2
((lp2609
g1418
atRp2610
sI1130
g2
((lp2611
g356
atRp2612
sI1131
g2
((lp2613
g77
atRp2614
sI1132
g2
((lp2615
g857
ag689
ag50
ag387
ag716
ag2011
ag306
ag711
ag390
atRp2616
sI1133
g2
((lp2617
g178
atRp2618
sI1134
g2
((lp2619
g313
atRp2620
sI1135
g2
((lp2621
g482
ag240
atRp2622
sI1136
g2
((lp2623
g271
ag2011
atRp2624
sI1137
g2
((lp2625
g319
atRp2626
sI1138
g2
((lp2627
g1335
ag31
atRp2628
sI1139
g2
((lp2629
g259
ag2402
atRp2630
sI1140
g2
((lp2631
g278
atRp2632
sI1141
g2
((lp2633
g1480
ag319
atRp2634
sI1142
g2
((lp2635
g343
atRp2636
sI1143
g2
((lp2637
g632
atRp2638
sI1144
g2
((lp2639
g517
ag504
atRp2640
sI1145
g2
((lp2641
g111
atRp2642
sI1146
g2
((lp2643
g74
ag711
ag273
ag270
ag274
atRp2644
sI1147
g2
((lp2645
g197
ag206
atRp2646
sI1148
g2
((lp2647
g501
ag369
atRp2648
sI1149
g2
((lp2649
g142
ag657
ag38
ag1263
atRp2650
sI1150
g2
((lp2651
g21
atRp2652
sI1151
g2
((lp2653
g378
atRp2654
sI1152
g2
((lp2655
g905
ag259
ag160
atRp2656
sI1153
g2
((lp2657
g156
atRp2658
sI1154
g2
((lp2659
g917
atRp2660
sI1155
g2
((lp2661
g477
atRp2662
sI1156
g2
((lp2663
g468
ag996
ag378
ag528
atRp2664
sI1157
g2
((lp2665
g53
atRp2666
sI1158
g2
((lp2667
g498
atRp2668
sI1159
g2
((lp2669
g537
atRp2670
sI1160
g2
((lp2671
g92
atRp2672
sI1161
g2
((lp2673
g102
atRp2674
sI1162
g2
((lp2675
g38
ag150
ag343
ag274
atRp2676
sI1163
g2
((lp2677
g213
atRp2678
sI1164
g2
((lp2679
g537
atRp2680
sI1165
g2
((lp2681
g96
atRp2682
sI1166
g2
((lp2683
g1344
ag141
ag494
ag206
ag322
ag1123
atRp2684
sI1167
g2
((lp2685
g219
ag333
atRp2686
sI1168
g2
((lp2687
g151
atRp2688
sI1169
g2
((lp2689
g485
atRp2690
sI1170
g2
((lp2691
g522
atRp2692
sI1171
g2
((lp2693
g216
atRp2694
sI1172
g2
((lp2695
g74
atRp2696
sI1173
g2
((lp2697
g32
atRp2698
sI1174
g2
((lp2699
g270
atRp2700
sI1175
g2
((lp2701
g178
atRp2702
sI1176
g2
((lp2703
g10
atRp2704
sI1177
g2
((lp2705
g378
atRp2706
sI1178
g2
((lp2707
g652
atRp2708
sI1179
g2
((lp2709
g322
atRp2710
sI1180
g2
((lp2711
g194
atRp2712
sI1181
g2
((lp2713
g166
atRp2714
sI1182
g2
((lp2715
g449
ag108
atRp2716
sI1183
g2
((lp2717
g44
ag512
atRp2718
sI1184
g2
((lp2719
g71
atRp2720
sI1185
g2
((lp2721
g369
atRp2722
sI1186
g2
((lp2723
g498
atRp2724
sI1187
g2
((lp2725
g14
atRp2726
sI1188
g2
((lp2727
g299
atRp2728
sI1189
g2
((lp2729
g85
ag632
atRp2730
sI1190
g2
((lp2731
g328
atRp2732
sI1191
g2
((lp2733
g507
atRp2734
sI1192
g2
((lp2735
g31
ag173
atRp2736
sI1193
g2
((lp2737
g838
atRp2738
sI1194
g2
((lp2739
g163
atRp2740
sI1195
g2
((lp2741
g140
atRp2742
sI1196
g2
((lp2743
g252
atRp2744
sI1197
g2
((lp2745
g459
atRp2746
sI1198
g2
((lp2747
g74
atRp2748
sI1199
g2
((lp2749
g409
ag404
atRp2750
sI1200
g2
((lp2751
g696
ag485
atRp2752
sI1201
g2
((lp2753
g1049
ag499
atRp2754
sI1202
g2
((lp2755
g166
atRp2756
sI1203
g2
((lp2757
g353
ag365
atRp2758
sI1204
g2
((lp2759
g586
atRp2760
sI1205
g2
((lp2761
g56
ag918
ag485
atRp2762
sI1206
g2
((lp2763
g1013
atRp2764
sI1207
g2
((lp2765
g140
ag142
atRp2766
sI1208
g2
((lp2767
g1248
atRp2768
sI1209
g2
((lp2769
g157
atRp2770
sI1210
g2
((lp2771
g898
atRp2772
sI1211
g2
((lp2773
g149
ag418
ag419
ag436
ag437
ag438
atRp2774
sI1212
g2
((lp2775
g111
atRp2776
sI1213
g2
((lp2777
g112
atRp2778
sI1214
g2
((lp2779
g65
atRp2780
sI1215
g2
((lp2781
g194
ag746
ag17
atRp2782
sI1216
g2
((lp2783
g509
atRp2784
sI1217
g2
((lp2785
g259
atRp2786
sI1218
g2
((lp2787
g343
atRp2788
sI1219
g2
((lp2789
g505
atRp2790
sI1220
g2
((lp2791
g319
atRp2792
sI1221
g2
((lp2793
g151
atRp2794
s.