(dp1
I0
c__builtin__
set
p2
((lp3
VQ151885
p4
aVQ24457356
p5
aVQ24444087
p6
atRp7
sI1
g2
((lp8
VQ464980
p9
aVQ667276
p10
atRp11
sI2
g2
((lp12
VQ11639
p13
atRp14
sI3
g2
((lp15
VQ45621
p16
atRp17
sI4
g2
((lp18
VQ5151
p19
atRp20
sI5
g2
((lp21
VQ13226383
p22
aVQ800279
p23
atRp24
sI6
g2
((lp25
VQ131596
p26
atRp27
sI7
g2
((lp28
VQ121916
p29
aVQ8192
p30
aVQ37260
p31
atRp32
sI8
g2
((lp33
VQ729230
p34
atRp35
sI9
g2
((lp36
VQ178561
p37
atRp38
sI10
g2
((lp39
VQ482994
p40
atRp41
sI11
g2
((lp42
VQ13414953
p43
aVQ179461
p44
aVQ1530022
p45
atRp46
sI12
g2
((lp47
VQ2144359
p48
atRp49
sI13
g2
((lp50
VQ930933
p51
atRp52
sI14
g2
((lp53
VQ768186
p54
aVQ1439598
p55
aVQ17638008
p56
atRp57
sI15
g2
((lp58
VQ7189713
p59
atRp60
sI16
g2
((lp61
VQ3084961
p62
atRp63
sI17
g2
((lp64
VQ11177771
p65
aVQ21711025
p66
aVQ1439691
p67
aVQ1001378
p68
atRp69
sI18
g2
((lp70
VQ1002697
p71
atRp72
sI19
g2
((lp73
VQ19953632
p74
aVQ3024240
p75
atRp76
sI20
g2
((lp77
VQ7725634
p78
aVQ223393
p79
atRp80
sI21
g2
((lp81
VQ19335303
p82
aVQ328539
p83
aVQ1203472
p84
atRp85
sI22
g2
((lp86
VQ40056
p87
aVQ15416
p88
atRp89
sI23
g2
((lp90
VQ185217
p91
atRp92
sI24
g2
((lp93
VQ10617810
p94
atRp95
sI25
g2
((lp96
VQ16979650
p97
atRp98
sI26
g2
((lp99
VQ10675206
p100
aVQ27643250
p101
atRp102
sI27
g2
((lp103
VQ334453
p104
aVQ20667921
p105
atRp106
sI28
g2
((lp107
VQ15101896
p108
atRp109
sI29
g2
((lp110
VQ79007
p111
atRp112
sI30
g2
((lp113
VQ1107656
p114
atRp115
sI31
g2
((lp116
VQ7743
p117
atRp118
sI32
g2
((lp119
VQ1802419
p120
atRp121
sI33
g2
((lp122
g23
aVQ55488
p123
atRp124
sI34
g2
((lp125
VQ271669
p126
atRp127
sI35
g2
((lp128
VQ1420
p129
aVQ3231690
p130
atRp131
sI36
g2
((lp132
VQ39614
p133
atRp134
sI37
g2
((lp135
VQ5058355
p136
atRp137
sI38
g2
((lp138
VQ15709879
p139
atRp140
sI39
g2
((lp141
VQ12876
p142
atRp143
sI40
g2
((lp144
VQ2453629
p145
atRp146
sI41
g2
((lp147
VQ16000047
p148
atRp149
sI42
g2
((lp150
VQ540439
p151
atRp152
sI43
g2
((lp153
VQ7946
p154
aVQ3977918
p155
atRp156
sI44
g2
((lp157
VQ714737
p158
aVQ980357
p159
atRp160
sI45
g2
((lp161
g120
aVQ1307214
p162
aVQ327333
p163
atRp164
sI46
g2
((lp165
VQ2160811
p166
atRp167
sI47
g2
((lp168
VQ1935049
p169
aVQ159334
p170
aVQ1244442
p171
aVQ3914
p172
atRp173
sI48
g2
((lp174
VQ35749
p175
aVQ1076579
p176
atRp177
sI49
g2
((lp178
VQ21073024
p179
atRp180
sI50
g2
((lp181
VQ131569
p182
atRp183
sI51
g2
((lp184
VQ4164871
p185
atRp186
sI52
g2
((lp187
VQ14952
p188
atRp189
sI53
g2
((lp190
VQ740752
p191
atRp192
sI54
g2
((lp193
VQ12796
p194
aVQ12800
p195
atRp196
sI55
g2
((lp197
VQ1076486
p198
atRp199
sI56
g2
((lp200
VQ317623
p201
atRp202
sI57
g2
((lp203
VQ61509
p204
atRp205
sI58
g2
((lp206
VQ2944660
p207
aVQ1497375
p208
atRp209
sI59
g2
((lp210
VQ33837
p211
atRp212
sI60
g2
((lp213
VQ22348500
p214
aVQ15091377
p215
aVQ2912397
p216
aVQ3001412
p217
atRp218
sI61
g2
((lp219
VQ1194951
p220
aVQ6979593
p221
aVQ1785271
p222
aVQ12973014
p223
atRp224
sI62
g2
((lp225
VQ188193
p226
aVQ2996394
p227
atRp228
sI63
g2
((lp229
VQ19832486
p230
atRp231
sI64
g2
((lp232
VQ2576663
p233
atRp234
sI65
g2
((lp235
VQ18536594
p236
atRp237
sI66
g2
((lp238
VQ838948
p239
ag78
aVQ386724
p240
atRp241
sI67
g2
((lp242
VQ123705
p243
atRp244
sI68
g2
((lp245
VQ44539
p246
atRp247
sI69
g2
((lp248
VQ11862829
p249
aVQ2312410
p250
atRp251
sI70
g2
((lp252
VQ36649
p253
atRp254
sI71
g2
((lp255
VQ628179
p256
atRp257
sI72
g2
((lp258
VQ815741
p259
atRp260
sI73
g2
((lp261
VQ1683232
p262
atRp263
sI74
g2
((lp264
VQ4022
p265
atRp266
sI75
g2
((lp267
VQ746549
p268
atRp269
sI76
g2
((lp270
VQ4189293
p271
aVQ3320743
p272
aVQ11773926
p273
atRp274
sI77
g2
((lp275
VQ7889
p276
aVQ659563
p277
atRp278
sI78
g2
((lp279
VQ79719
p280
aVQ3943414
p281
atRp282
sI79
g2
((lp283
VQ863908
p284
atRp285
sI80
g2
((lp286
VQ3343211
p287
atRp288
sI81
g2
((lp289
g195
aVQ11019
p290
atRp291
sI82
g2
((lp292
VQ40050
p293
atRp294
sI83
g2
((lp295
VQ484692
p296
atRp297
sI84
g2
((lp298
VQ214609
p299
atRp300
sI85
g2
((lp301
VQ486972
p302
atRp303
sI86
g2
((lp304
VQ25379
p305
atRp306
sI87
g2
((lp307
g82
aVQ4830453
p308
aVQ1269299
p309
atRp310
sI88
g2
((lp311
VQ2425052
p312
atRp313
sI89
g2
((lp314
g273
atRp315
sI90
g2
((lp316
VQ12136
p317
atRp318
sI91
g2
((lp319
VQ1197685
p320
aVQ294414
p321
atRp322
sI92
g2
((lp323
VQ1192063
p324
atRp325
sI93
g2
((lp326
VQ5119
p327
atRp328
sI94
g2
((lp329
VQ122653
p330
atRp331
sI95
g2
((lp332
VQ1478437
p333
aVQ500834
p334
aVQ15259995
p335
aVQ13219666
p336
atRp337
sI96
g2
((lp338
VQ878123
p339
atRp340
sI97
g2
((lp341
g194
ag195
atRp342
sI98
g2
((lp343
VQ968159
p344
aVQ2198855
p345
atRp346
sI99
g2
((lp347
VQ15324
p348
atRp349
sI100
g2
((lp350
VQ879146
p351
atRp352
sI101
g2
((lp353
VQ189533
p354
atRp355
sI102
g2
((lp356
VQ153556
p357
atRp358
sI103
g2
((lp359
VQ178401
p360
atRp361
sI104
g2
((lp362
g43
ag351
atRp363
sI105
g2
((lp364
VQ19603939
p365
ag136
aVQ1310239
p366
atRp367
sI106
g2
((lp368
g105
atRp369
sI107
g2
((lp370
VQ23397
p371
atRp372
sI108
g2
((lp373
g348
atRp374
sI109
g2
((lp375
VQ214519
p376
atRp377
sI110
g2
((lp378
VQ15831598
p379
aVQ16686022
p380
aVQ23010327
p381
aVQ6999
p382
aVQ223557
p383
aVQ618123
p384
aVQ17519152
p385
aVQ17444909
p386
ag208
aVQ337060
p387
atRp388
sI111
g2
((lp389
VQ9135
p390
atRp391
sI112
g2
((lp392
VQ16334295
p393
aVQ874405
p394
ag381
aVQ16887380
p395
aVQ2590445
p396
ag97
ag385
aVQ14514600
p397
atRp398
sI113
g2
((lp399
VQ1799072
p400
aVQ46857
p401
atRp402
sI114
g2
((lp403
VQ11345
p404
atRp405
sI115
g2
((lp406
VQ1150070
p407
atRp408
sI116
g2
((lp409
VQ9081
p410
atRp411
sI117
g2
((lp412
VQ1076105
p413
atRp414
sI118
g2
((lp415
VQ31855
p416
atRp417
sI119
g2
((lp418
g207
ag208
atRp419
sI120
g2
((lp420
VQ268592
p421
atRp422
sI121
g2
((lp423
VQ178885
p424
atRp425
sI122
g2
((lp426
VQ10870555
p427
atRp428
sI123
g2
((lp429
VQ33506
p430
atRp431
sI124
g2
((lp432
VQ14795564
p433
atRp434
sI125
g2
((lp435
g91
ag62
aVQ951964
p436
aVQ2424752
p437
atRp438
sI126
g2
((lp439
VQ34749
p440
ag394
atRp441
sI127
g2
((lp442
VQ32635
p443
atRp444
sI128
g2
((lp445
VQ23905071
p446
aVQ781132
p447
ag169
aVQ831663
p448
aVQ176799
p449
aVQ21506450
p450
aVQ1788716
p451
aVQ645883
p452
atRp453
sI129
g2
((lp454
g29
atRp455
sI130
g2
((lp456
g407
atRp457
sI131
g2
((lp458
g272
atRp459
sI132
g2
((lp460
VQ1931388
p461
atRp462
sI133
g2
((lp463
VQ5569988
p464
atRp465
sI134
g2
((lp466
VQ11060274
p467
atRp468
sI135
g2
((lp469
VQ290
p470
atRp471
sI136
g2
((lp472
VQ15056993
p473
aVQ25295
p474
aVQ13417114
p475
aVQ15711994
p476
aVQ15057020
p477
aVQ15142889
p478
aVQ8436
p479
atRp480
sI137
g2
((lp481
VQ82042
p482
atRp483
sI138
g2
((lp484
VQ11023
p485
atRp486
sI139
g2
((lp487
g451
atRp488
sI140
g2
((lp489
VQ234460
p490
ag44
atRp491
sI141
g2
((lp492
VQ839954
p493
atRp494
sI142
g2
((lp495
g443
aVQ631147
p496
aVQ82799
p497
atRp498
sI143
g2
((lp499
VQ1751626
p500
aVQ132241
p501
atRp502
sI144
g2
((lp503
VQ39546
p504
aVQ1760958
p505
aVQ1077784
p506
atRp507
sI145
g2
((lp508
VQ37654
p509
atRp510
sI146
g2
((lp511
VQ27686
p512
atRp513
sI147
g2
((lp514
g474
aVQ629206
p515
aVQ315
p516
aVQ34770
p517
aVQ9143
p518
atRp519
sI148
g2
((lp520
VQ35120
p521
atRp522
sI149
g2
((lp523
g155
atRp524
sI150
g2
((lp525
VQ17335294
p526
atRp527
sI151
g2
((lp528
VQ282
p529
atRp530
sI152
g2
((lp531
VQ349
p532
aVQ623109
p533
ag223
aVQ31629
p534
aVQ847017
p535
aVQ13406554
p536
ag198
ag54
ag220
ag250
atRp537
sI153
g2
((lp538
VQ5292
p539
atRp540
sI154
g2
((lp541
g74
aVQ161243
p542
aVQ914262
p543
aVQ183366
p544
aVQ15617994
p545
aVQ56061
p546
aVQ1048835
p547
aVQ112865
p548
aVQ1496967
p549
aVQ852446
p550
atRp551
sI155
g2
((lp552
VQ62927
p553
atRp554
sI156
g2
((lp555
g550
atRp556
sI157
g2
((lp557
VQ42889
p558
atRp559
sI158
g2
((lp560
VQ11424
p561
aVQ201658
p562
aVQ4220917
p563
aVQ375336
p564
atRp565
sI159
g2
((lp566
g133
atRp567
sI160
g2
((lp568
VQ44424
p569
atRp570
sI161
g2
((lp571
g509
atRp572
sI162
g2
((lp573
VQ1303814
p574
atRp575
sI163
g2
((lp576
VQ3745054
p577
ag217
atRp578
sI164
g2
((lp579
VQ9779
p580
atRp581
sI165
g2
((lp582
g175
ag176
atRp583
sI166
g2
((lp584
VQ2385804
p585
atRp586
sI167
g2
((lp587
VQ376799
p588
atRp589
sI168
g2
((lp590
VQ79529
p591
atRp592
sI169
g2
((lp593
VQ476028
p594
ag535
atRp595
sI170
g2
((lp596
VQ820655
p597
atRp598
sI171
g2
((lp599
g191
atRp600
sI172
g2
((lp601
VQ1267889
p602
atRp603
sI173
g2
((lp604
VQ198
p605
atRp606
sI174
g2
((lp607
VQ618779
p608
ag563
atRp609
sI175
g2
((lp610
g256
atRp611
sI176
g2
((lp612
VQ14660
p613
atRp614
sI177
g2
((lp615
VQ22676587
p616
atRp617
sI178
g2
((lp618
VQ83405
p619
atRp620
sI179
g2
((lp621
VQ8502
p622
aVQ46831
p623
atRp624
sI180
g2
((lp625
VQ16970
p626
atRp627
sI181
g2
((lp628
VQ7210356
p629
aVQ14623646
p630
aVQ43229
p631
ag45
aVQ163740
p632
ag309
ag82
aVQ79913
p633
aVQ484652
p634
atRp635
sI182
g2
((lp636
VQ877517
p637
atRp638
sI183
g2
((lp639
VQ25570959
p640
aVQ20056177
p641
atRp642
sI184
g2
((lp643
VQ180516
p644
atRp645
sI185
g2
((lp646
g440
ag394
atRp647
sI186
g2
((lp648
VQ44377
p649
atRp650
sI187
g2
((lp651
g440
aVQ843601
p652
aVQ7991
p653
aVQ1665984
p654
aVQ336
p655
aVQ2465832
p656
aVQ28797
p657
atRp658
sI188
g2
((lp659
g404
atRp660
sI189
g2
((lp661
VQ309100
p662
atRp663
sI190
g2
((lp664
VQ373045
p665
atRp666
sI191
g2
((lp667
VQ53463
p668
atRp669
sI192
g2
((lp670
VQ17737
p671
atRp672
sI193
g2
((lp673
VQ3700011
p674
atRp675
sI194
g2
((lp676
g473
aVQ15056995
p677
aVQ1875621
p678
aVQ11436
p679
aVQ20027953
p680
aVQ20027951
p681
atRp682
sI195
g2
((lp683
VQ732577
p684
atRp685
sI196
g2
((lp686
VQ11514315
p687
atRp688
sI197
g2
((lp689
g4
ag5
ag6
atRp690
sI198
g2
((lp691
VQ1047113
p692
atRp693
sI199
g2
((lp694
VQ1441305
p695
aVQ930752
p696
aVQ796194
p697
atRp698
sI200
g2
((lp699
g387
atRp700
sI201
g2
((lp701
VQ39367
p702
ag577
atRp703
sI202
g2
((lp704
VQ12280
p705
atRp706
sI203
g2
((lp707
VQ3516658
p708
atRp709
sI204
g2
((lp710
VQ102496
p711
atRp712
sI205
g2
((lp713
VQ937946
p714
atRp715
sI206
g2
((lp716
VQ8072
p717
atRp718
sI207
g2
((lp719
VQ500669
p720
ag227
aVQ3249551
p721
aVQ1057
p722
atRp723
sI208
g2
((lp724
VQ3123403
p725
atRp726
sI209
g2
((lp727
VQ15831576
p728
aVQ7603913
p729
aVQ11430
p730
aVQ7275
p731
atRp732
sI210
g2
((lp733
g360
atRp734
sI211
g2
((lp735
VQ2095
p736
ag436
ag101
atRp737
sI212
g2
((lp738
VQ179049
p739
atRp740
sI213
g2
((lp741
VQ701632
p742
atRp743
sI214
g2
((lp744
g94
atRp745
sI215
g2
((lp746
VQ3062294
p747
aVQ187931
p748
atRp749
sI216
g2
((lp750
VQ197
p751
atRp752
sI217
g2
((lp753
VQ11460
p754
atRp755
sI218
g2
((lp756
VQ8054
p757
atRp758
sI219
g2
((lp759
VQ1777515
p760
atRp761
sI220
g2
((lp762
VQ914262
p763
aVQ2372330
p764
atRp765
sI221
g2
((lp766
VQ11028
p767
atRp768
sI222
g2
((lp769
g585
atRp770
sI223
g2
((lp771
g145
atRp772
sI224
g2
((lp773
VQ1637740
p774
atRp775
sI225
g2
((lp776
VQ15198957
p777
aVQ188451
p778
atRp779
sI226
g2
((lp780
VQ4407246
p781
atRp782
sI227
g2
((lp783
g204
atRp784
sI228
g2
((lp785
g176
atRp786
sI229
g2
((lp787
VQ222405
p788
atRp789
sI230
g2
((lp790
g623
atRp791
sI231
g2
((lp792
VQ337567
p793
atRp794
sI232
g2
((lp795
VQ1970725
p796
aVQ82794
p797
aVQ553036
p798
aVQ17781690
p799
atRp800
sI233
g2
((lp801
VQ93288
p802
atRp803
sI234
g2
((lp804
g640
ag641
atRp805
sI235
g2
((lp806
VQ16103215
p807
atRp808
sI236
g2
((lp809
VQ13539802
p810
atRp811
sI237
g2
((lp812
VQ2088357
p813
atRp814
sI238
g2
((lp815
VQ636497
p816
atRp817
sI239
g2
((lp818
VQ33384
p819
atRp820
sI240
g2
((lp821
g365
aVQ41176
p822
ag171
atRp823
sI241
g2
((lp824
VQ35798
p825
atRp826
sI242
g2
((lp827
VQ18142
p828
atRp829
sI243
g2
((lp830
VQ80831
p831
atRp832
sI244
g2
((lp833
g754
atRp834
sI245
g2
((lp835
g26
atRp836
sI246
g2
((lp837
g793
ag348
atRp838
sI247
g2
((lp839
VQ1299240
p840
atRp841
sI248
g2
((lp842
VQ7328910
p843
aVQ2668072
p844
atRp845
sI249
g2
((lp846
VQ166142
p847
atRp848
sI250
g2
((lp849
VQ2352616
p850
atRp851
sI251
g2
((lp852
VQ431289
p853
atRp854
sI252
g2
((lp855
g396
atRp856
sI253
g2
((lp857
VQ205892
p858
ag433
atRp859
sI254
g2
((lp860
VQ7748
p861
aVQ846882
p862
atRp863
sI255
g2
((lp864
VQ66221
p865
atRp866
sI256
g2
((lp867
VQ16767597
p868
ag807
ag534
aVQ24016972
p869
aVQ2235308
p870
aVQ3546121
p871
ag386
atRp872
sI257
g2
((lp873
g447
aVQ2324993
p874
ag324
ag825
ag656
aVQ22811234
p875
ag421
atRp876
sI258
g2
((lp877
VQ11435
p878
atRp879
sI259
g2
((lp880
g526
atRp881
sI260
g2
((lp882
g376
atRp883
sI261
g2
((lp884
VQ728937
p885
atRp886
sI262
g2
((lp887
g9
ag10
atRp888
sI263
g2
((lp889
g379
aVQ6619679
p890
ag397
aVQ15708422
p891
ag630
ag396
aVQ3895768
p892
aVQ15707583
p893
aVQ95074
p894
atRp895
sI264
g2
((lp896
VQ15688633
p897
aVQ3293444
p898
aVQ391414
p899
atRp900
sI265
g2
((lp901
VQ22988604
p902
atRp903
sI266
g2
((lp904
VQ13220204
p905
atRp906
sI267
g2
((lp907
g381
atRp908
sI268
g2
((lp909
VQ8366
p910
atRp911
sI269
g2
((lp912
VQ34442
p913
atRp914
sI270
g2
((lp915
g711
atRp916
sI271
g2
((lp917
VQ131257
p918
atRp919
sI272
g2
((lp920
g100
ag101
atRp921
sI273
g2
((lp922
VQ2221906
p923
ag797
atRp924
sI274
g2
((lp925
VQ2003221
p926
aVQ193622
p927
atRp928
sI275
g2
((lp929
g529
atRp930
sI276
g2
((lp931
g452
aVQ18018609
p932
aVQ362482
p933
atRp934
sI277
g2
((lp935
g548
atRp936
sI278
g2
((lp937
g142
atRp938
sI279
g2
((lp939
g376
atRp940
sI280
g2
((lp941
VQ10943
p942
ag871
atRp943
sI281
g2
((lp944
g188
atRp945
sI282
g2
((lp946
g521
atRp947
sI283
g2
((lp948
g708
aVQ80071
p949
atRp950
sI284
g2
((lp951
VQ155972
p952
atRp953
sI285
g2
((lp954
VQ7257
p955
atRp956
sI286
g2
((lp957
VQ2986700
p958
aVQ938236
p959
atRp960
sI287
g2
((lp961
g695
atRp962
sI288
g2
((lp963
g424
atRp964
sI289
g2
((lp965
g793
atRp966
sI290
g2
((lp967
VQ5633421
p968
atRp969
sI291
g2
((lp970
g170
atRp971
sI292
g2
((lp972
VQ1412403
p973
atRp974
sI293
g2
((lp975
VQ8148
p976
atRp977
sI294
g2
((lp978
VQ36534
p979
ag591
aVQ11173
p980
ag569
atRp981
sI295
g2
((lp982
VQ32880
p983
atRp984
sI296
g2
((lp985
g393
ag394
ag381
ag395
ag396
ag97
ag385
ag397
atRp986
sI297
g2
((lp987
g891
atRp988
sI298
g2
((lp989
g902
atRp990
sI299
g2
((lp991
VQ1292279
p992
atRp993
sI300
g2
((lp994
g22
ag23
atRp995
sI301
g2
((lp996
VQ705914
p997
aVQ18123755
p998
atRp999
sI302
g2
((lp1000
g29
ag30
ag31
atRp1001
sI303
g2
((lp1002
VQ169872
p1003
atRp1004
sI304
g2
((lp1005
VQ241317
p1006
atRp1007
sI305
g2
((lp1008
VQ3305213
p1009
atRp1010
sI306
g2
((lp1011
g354
atRp1012
sI307
g2
((lp1013
g226
ag616
ag390
ag30
aVQ676202
p1014
aVQ28108
p1015
ag330
aVQ58778
p1016
aVQ994895
p1017
atRp1018
sI308
g2
((lp1019
g681
atRp1020
sI309
g2
((lp1021
VQ11024
p1022
atRp1023
sI310
g2
((lp1024
g62
atRp1025
sI311
g2
((lp1026
VQ473972
p1027
aVQ1936384
p1028
atRp1029
sI312
g2
((lp1030
g543
atRp1031
sI313
g2
((lp1032
g111
atRp1033
sI314
g2
((lp1034
g574
atRp1035
sI315
g2
((lp1036
VQ16058315
p1037
aVQ12757
p1038
atRp1039
sI316
g2
((lp1040
g760
atRp1041
sI317
g2
((lp1042
g317
atRp1043
sI318
g2
((lp1044
g654
atRp1045
sI319
g2
((lp1046
VQ49447
p1047
atRp1048
sI320
g2
((lp1049
g736
ag436
ag101
atRp1050
sI321
g2
((lp1051
VQ12323
p1052
atRp1053
sI322
g2
((lp1054
VQ2472587
p1055
atRp1056
sI323
g2
((lp1057
g680
atRp1058
sI324
g2
((lp1059
VQ271680
p1060
atRp1061
sI325
g2
((lp1062
g505
atRp1063
sI326
g2
((lp1064
g476
ag980
atRp1065
sI327
g2
((lp1066
VQ177634
p1067
atRp1068
sI328
g2
((lp1069
g1006
atRp1070
sI329
g2
((lp1071
VQ573
p1072
atRp1073
sI330
g2
((lp1074
g641
atRp1075
sI331
g2
((lp1076
g692
atRp1077
sI332
g2
((lp1078
VQ191067
p1079
atRp1080
sI333
g2
((lp1081
VQ1969448
p1082
aVQ2135465
p1083
atRp1084
sI334
g2
((lp1085
g665
atRp1086
sI335
g2
((lp1087
g443
ag496
ag497
atRp1088
sI336
g2
((lp1089
VQ3918
p1090
atRp1091
sI337
g2
((lp1092
g757
atRp1093
sI338
g2
((lp1094
VQ8063
p1095
atRp1096
sI339
g2
((lp1097
g657
atRp1098
sI340
g2
((lp1099
VQ41291
p1100
atRp1101
sI341
g2
((lp1102
VQ334166
p1103
atRp1104
sI342
g2
((lp1105
g1095
atRp1106
sI343
g2
((lp1107
g717
atRp1108
sI344
g2
((lp1109
VQ853614
p1110
aVQ6545185
p1111
atRp1112
sI345
g2
((lp1113
VQ3270632
p1114
ag220
ag221
atRp1115
sI346
g2
((lp1116
g569
atRp1117
sI347
g2
((lp1118
VQ653127
p1119
atRp1120
sI348
g2
((lp1121
g979
atRp1122
sI349
g2
((lp1123
g443
atRp1124
sI350
g2
((lp1125
VQ5962346
p1126
atRp1127
sI351
g2
((lp1128
VQ1396170
p1129
atRp1130
sI352
g2
((lp1131
VQ4213
p1132
atRp1133
sI353
g2
((lp1134
g330
atRp1135
sI354
g2
((lp1136
g742
atRp1137
sI355
g2
((lp1138
g139
aVQ277759
p1139
aVQ14406742
p1140
aVQ5398426
p1141
atRp1142
sI356
g2
((lp1143
g891
atRp1144
sI357
g2
((lp1145
VQ491040
p1146
atRp1147
sI358
g2
((lp1148
VQ756
p1149
aVQ20011319
p1150
atRp1151
sI359
g2
((lp1152
VQ5447188
p1153
atRp1154
sI360
g2
((lp1155
VQ8425
p1156
atRp1157
sI361
g2
((lp1158
VQ8142
p1159
atRp1160
sI362
g2
((lp1161
VQ47574
p1162
atRp1163
sI363
g2
((lp1164
VQ215380
p1165
atRp1166
sI364
g2
((lp1167
VQ3565782
p1168
atRp1169
sI365
g2
((lp1170
g452
ag932
ag933
atRp1171
sI366
g2
((lp1172
VQ167170
p1173
aVQ18608583
p1174
aVQ15275719
p1175
aVQ15900616
p1176
aVQ1190554
p1177
aVQ16510064
p1178
ag236
aVQ1656682
p1179
aVQ2245405
p1180
atRp1181
sI367
g2
((lp1182
g158
ag159
atRp1183
sI368
g2
((lp1184
g692
atRp1185
sI369
g2
((lp1186
VQ987767
p1187
atRp1188
sI370
g2
((lp1189
VQ134768
p1190
atRp1191
sI371
g2
((lp1192
VQ340169
p1193
aVQ1209283
p1194
atRp1195
sI372
g2
((lp1196
g819
atRp1197
sI373
g2
((lp1198
g553
atRp1199
sI374
g2
((lp1200
VQ174174
p1201
atRp1202
sI375
g2
((lp1203
g619
atRp1204
sI376
g2
((lp1205
VQ1914636
p1206
atRp1207
sI377
g2
((lp1208
g416
atRp1209
sI378
g2
((lp1210
VQ1274559
p1211
aVQ2542334
p1212
atRp1213
sI379
g2
((lp1214
g652
aVQ2057971
p1215
atRp1216
sI380
g2
((lp1217
VQ6055843
p1218
aVQ1668024
p1219
atRp1220
sI381
g2
((lp1221
g467
atRp1222
sI382
g2
((lp1223
g626
atRp1224
sI383
g2
((lp1225
g1194
atRp1226
sI384
g2
((lp1227
g450
atRp1228
sI385
g2
((lp1229
g48
atRp1230
sI386
g2
((lp1231
g831
atRp1232
sI387
g2
((lp1233
g312
atRp1234
sI388
g2
((lp1235
VQ179805
p1236
ag875
atRp1237
sI389
g2
((lp1238
g671
atRp1239
sI390
g2
((lp1240
g287
atRp1241
sI391
g2
((lp1242
VQ3773693
p1243
atRp1244
sI392
g2
((lp1245
VQ341
p1246
ag281
atRp1247
sI393
g2
((lp1248
g201
atRp1249
sI394
g2
((lp1250
g448
atRp1251
sI395
g2
((lp1252
VQ3947
p1253
atRp1254
sI396
g2
((lp1255
g629
ag547
ag1236
ag1015
ag992
aVQ7278
p1256
atRp1257
sI397
g2
((lp1258
VQ350604
p1259
aVQ180684
p1260
atRp1261
sI398
g2
((lp1262
VQ2658935
p1263
atRp1264
sI399
g2
((lp1265
g1119
atRp1266
sI400
g2
((lp1267
VQ207628
p1268
atRp1269
sI401
g2
((lp1270
VQ15700808
p1271
atRp1272
sI402
g2
((lp1273
g674
atRp1274
sI403
g2
((lp1275
g474
ag515
ag516
ag517
ag518
atRp1276
sI404
g2
((lp1277
VQ192350
p1278
atRp1279
sI405
g2
((lp1280
g747
ag748
atRp1281
sI406
g2
((lp1282
VQ28640
p1283
atRp1284
sI407
g2
((lp1285
VQ3966
p1286
ag87
aVQ68
p1287
ag952
ag515
ag865
atRp1288
sI408
g2
((lp1289
g506
ag518
aVQ188267
p1290
atRp1291
sI409
g2
((lp1292
g1072
atRp1293
sI410
g2
((lp1294
VQ186081
p1295
aVQ1790144
p1296
atRp1297
sI411
g2
((lp1298
g1278
atRp1299
sI412
g2
((lp1300
VQ502895
p1301
atRp1302
sI413
g2
((lp1303
VQ16560
p1304
atRp1305
sI414
g2
((lp1306
VQ3412758
p1307
atRp1308
sI415
g2
((lp1309
g632
atRp1310
sI416
g2
((lp1311
VQ216200
p1312
atRp1313
sI417
g2
((lp1314
VQ107715
p1315
ag380
ag383
aVQ181175
p1316
atRp1317
sI418
g2
((lp1318
g74
ag75
atRp1319
sI419
g2
((lp1320
VQ1318295
p1321
atRp1322
sI420
g2
((lp1323
VQ699405
p1324
atRp1325
sI421
g2
((lp1326
VQ147276
p1327
aVQ2712963
p1328
atRp1329
sI422
g2
((lp1330
VQ87167
p1331
atRp1332
sI423
g2
((lp1333
VQ12737077
p1334
atRp1335
sI424
g2
((lp1336
g729
atRp1337
sI425
g2
((lp1338
VQ22667
p1339
ag885
atRp1340
sI426
g2
((lp1341
g1327
ag1328
atRp1342
sI427
g2
((lp1343
VQ355567
p1344
atRp1345
sI428
g2
((lp1346
VQ2001305
p1347
atRp1348
sI429
g2
((lp1349
g623
atRp1350
sI430
g2
((lp1351
VQ36161
p1352
atRp1353
sI431
g2
((lp1354
g433
atRp1355
sI432
g2
((lp1356
g71
atRp1357
sI433
g2
((lp1358
VQ26971562
p1359
ag1140
atRp1360
sI434
g2
((lp1361
VQ995595
p1362
aVQ1267829
p1363
aVQ1188736
p1364
ag151
ag83
aVQ688120
p1365
ag764
aVQ1376114
p1366
atRp1367
sI435
g2
((lp1368
VQ37555
p1369
atRp1370
sI436
g2
((lp1371
g433
atRp1372
sI437
g2
((lp1373
VQ515
p1374
atRp1375
sI438
g2
((lp1376
g577
ag217
atRp1377
sI439
g2
((lp1378
g684
atRp1379
sI440
g2
((lp1380
VQ7406919
p1381
ag1219
atRp1382
sI441
g2
((lp1383
g500
ag501
atRp1384
sI442
g2
((lp1385
g129
ag130
atRp1386
sI443
g2
((lp1387
g702
ag577
atRp1388
sI444
g2
((lp1389
g464
atRp1390
sI445
g2
((lp1391
g226
ag616
ag390
ag30
ag1014
ag1015
ag330
ag1016
ag1017
atRp1392
sI446
g2
((lp1393
g973
atRp1394
sI447
g2
((lp1395
g696
atRp1396
sI448
g2
((lp1397
VQ1616075
p1398
ag123
atRp1399
sI449
g2
((lp1400
VQ2684591
p1401
atRp1402
sI450
g2
((lp1403
g1295
ag1296
atRp1404
sI451
g2
((lp1405
g898
atRp1406
sI452
g2
((lp1407
g1126
atRp1408
sI453
g2
((lp1409
VQ6671777
p1410
ag640
aVQ811979
p1411
aVQ4936952
p1412
atRp1413
sI454
g2
((lp1414
g702
atRp1415
sI455
g2
((lp1416
VQ5082128
p1417
atRp1418
sI456
g2
((lp1419
g665
atRp1420
sI457
g2
((lp1421
g1271
atRp1422
sI458
g2
((lp1423
VQ7365
p1424
atRp1425
sI459
g2
((lp1426
g451
atRp1427
sI460
g2
((lp1428
g51
atRp1429
sI461
g2
((lp1430
VQ14524493
p1431
atRp1432
sI462
g2
((lp1433
g504
ag505
ag506
atRp1434
sI463
g2
((lp1435
g512
atRp1436
sI464
g2
((lp1437
VQ22698
p1438
atRp1439
sI465
g2
((lp1440
VQ2065736
p1441
ag345
aVQ1143546
p1442
atRp1443
sI466
g2
((lp1444
g979
ag591
ag980
ag569
atRp1445
sI467
g2
((lp1446
VQ15989253
p1447
ag1150
ag482
atRp1448
sI468
g2
((lp1449
VQ37144
p1450
atRp1451
sI469
g2
((lp1452
VQ22687
p1453
atRp1454
sI470
g2
((lp1455
g6
atRp1456
sI471
g2
((lp1457
g796
ag798
ag380
ag653
aVQ8065
p1458
atRp1459
sI472
g2
((lp1460
g40
atRp1461
sI473
g2
((lp1462
g695
atRp1463
sI474
g2
((lp1464
g67
atRp1465
sI475
g2
((lp1466
g585
aVQ178706
p1467
atRp1468
sI476
g2
((lp1469
g1003
atRp1470
sI477
g2
((lp1471
VQ3241972
p1472
ag902
ag894
ag816
atRp1473
sI478
g2
((lp1474
VQ1110684
p1475
atRp1476
sI479
g2
((lp1477
g1347
ag88
ag1398
ag1141
aVQ15961987
p1478
atRp1479
sI480
g2
((lp1480
g1327
atRp1481
sI481
g2
((lp1482
VQ860861
p1483
ag66
aVQ18783400
p1484
atRp1485
sI482
g2
((lp1486
VQ15619164
p1487
ag1328
atRp1488
sI483
g2
((lp1489
g446
ag447
ag169
ag448
ag449
ag450
ag451
ag452
atRp1490
sI484
g2
((lp1491
g68
atRp1492
sI485
g2
((lp1493
VQ131436
p1494
atRp1495
sI486
g2
((lp1496
VQ170584
p1497
atRp1498
sI487
g2
((lp1499
g728
ag730
atRp1500
sI488
g2
((lp1501
VQ1137468
p1502
atRp1503
sI489
g2
((lp1504
g230
ag446
ag214
ag450
ag678
ag680
ag681
atRp1505
sI490
g2
((lp1506
g687
atRp1507
sI491
g2
((lp1508
VQ48277
p1509
atRp1510
sI492
g2
((lp1511
VQ17276484
p1512
atRp1513
sI493
g2
((lp1514
g1483
ag66
ag1484
atRp1515
sI494
g2
((lp1516
VQ9332
p1517
atRp1518
sI495
g2
((lp1519
g705
atRp1520
sI496
g2
((lp1521
g674
atRp1522
sI497
g2
((lp1523
VQ355304
p1524
atRp1525
sI498
g2
((lp1526
g464
atRp1527
sI499
g2
((lp1528
g505
atRp1529
sI500
g2
((lp1530
g923
ag892
atRp1531
sI501
g2
((lp1532
VQ5589178
p1533
atRp1534
sI502
g2
((lp1535
VQ161439
p1536
atRp1537
sI503
g2
((lp1538
g729
atRp1539
sI504
g2
((lp1540
g211
atRp1541
sI505
g2
((lp1542
g354
ag249
atRp1543
sI506
g2
((lp1544
VQ895526
p1545
aVQ712378
p1546
atRp1547
sI507
g2
((lp1548
g831
atRp1549
sI508
g2
((lp1550
VQ312466
p1551
atRp1552
sI509
g2
((lp1553
g622
ag623
atRp1554
sI510
g2
((lp1555
VQ49848
p1556
atRp1557
sI511
g2
((lp1558
VQ2695280
p1559
atRp1560
sI512
g2
((lp1561
VQ2031291
p1562
atRp1563
sI513
g2
((lp1564
g268
atRp1565
sI514
g2
((lp1566
g163
atRp1567
sI515
g2
((lp1568
g272
atRp1569
sI516
g2
((lp1570
g440
ag652
ag653
ag654
ag655
ag656
ag657
atRp1571
sI517
g2
((lp1572
VQ1166770
p1573
atRp1574
sI518
g2
((lp1575
g1038
atRp1576
sI519
g2
((lp1577
VQ7094076
p1578
atRp1579
sI520
g2
((lp1580
g840
atRp1581
sI521
g2
((lp1582
g1441
ag345
ag1442
atRp1583
sI522
g2
((lp1584
g65
ag66
ag67
ag68
atRp1585
sI523
g2
((lp1586
g853
atRp1587
sI524
g2
((lp1588
g1347
atRp1589
sI525
g2
((lp1590
g828
atRp1591
sI526
g2
((lp1592
g1090
atRp1593
sI527
g2
((lp1594
g305
atRp1595
sI528
g2
((lp1596
VQ532
p1597
atRp1598
sI529
g2
((lp1599
VQ3959904
p1600
ag208
atRp1601
sI530
g2
((lp1602
g728
atRp1603
sI531
g2
((lp1604
g396
atRp1605
sI532
g2
((lp1606
g376
atRp1607
sI533
g2
((lp1608
VQ44613
p1609
atRp1610
sI534
g2
((lp1611
g379
ag380
ag382
ag383
ag384
ag386
ag387
atRp1612
sI535
g2
((lp1613
g284
ag1176
atRp1614
sI536
g2
((lp1615
g1363
atRp1616
sI537
g2
((lp1617
g68
atRp1618
sI538
g2
((lp1619
g1037
ag1038
atRp1620
sI539
g2
((lp1621
g798
atRp1622
sI540
g2
((lp1623
VQ9788
p1624
atRp1625
sI541
g2
((lp1626
g185
atRp1627
sI542
g2
((lp1628
g1381
ag1219
atRp1629
sI543
g2
((lp1630
g1263
atRp1631
sI544
g2
((lp1632
g588
atRp1633
sI545
g2
((lp1634
g230
ag446
ag214
ag450
ag678
ag680
ag681
atRp1635
sI546
g2
((lp1636
VQ62447
p1637
atRp1638
sI547
g2
((lp1639
g632
atRp1640
sI548
g2
((lp1641
g597
atRp1642
sI549
g2
((lp1643
g1290
atRp1644
sI550
g2
((lp1645
VQ8205328
p1646
atRp1647
sI551
g2
((lp1648
g154
ag155
atRp1649
sI552
g2
((lp1650
g243
atRp1651
sI553
g2
((lp1652
g48
atRp1653
sI554
g2
((lp1654
g1417
atRp1655
sI555
g2
((lp1656
g976
atRp1657
sI556
g2
((lp1658
g695
ag696
ag697
atRp1659
sI557
g2
((lp1660
g1512
atRp1661
sI558
g2
((lp1662
g702
atRp1663
sI559
g2
((lp1664
g182
atRp1665
sI560
g2
((lp1666
g722
atRp1667
sI561
g2
((lp1668
g862
atRp1669
sI562
g2
((lp1670
g65
ag868
ag166
atRp1671
sI563
g2
((lp1672
VQ8513
p1673
ag1578
atRp1674
sI564
g2
((lp1675
g1475
atRp1676
sI565
g2
((lp1677
g1009
atRp1678
sI566
g2
((lp1679
g585
ag1467
atRp1680
sI567
g2
((lp1681
g865
atRp1682
sI568
g2
((lp1683
g1315
ag1316
atRp1684
sI569
g2
((lp1685
VQ22731
p1686
atRp1687
sI570
g2
((lp1688
g1132
atRp1689
sI571
g2
((lp1690
g207
atRp1691
sI572
g2
((lp1692
g1502
atRp1693
sI573
g2
((lp1694
VQ483247
p1695
atRp1696
sI574
g2
((lp1697
g1609
atRp1698
sI575
g2
((lp1699
g742
atRp1700
sI576
g2
((lp1701
g490
ag44
atRp1702
sI577
g2
((lp1703
g461
atRp1704
sI578
g2
((lp1705
VQ62155
p1706
atRp1707
sI579
g2
((lp1708
VQ101998
p1709
atRp1710
sI580
g2
((lp1711
g493
atRp1712
sI581
g2
((lp1713
VQ2001982
p1714
atRp1715
sI582
g2
((lp1716
VQ9174
p1717
atRp1718
sI583
g2
((lp1719
g796
ag798
ag380
ag653
ag1458
atRp1720
sI584
g2
((lp1721
g662
atRp1722
sI585
g2
((lp1723
g82
ag308
ag309
atRp1724
sI586
g2
((lp1725
VQ34379
p1726
aVQ862597
p1727
ag1268
ag813
atRp1728
sI587
g2
((lp1729
g580
atRp1730
sI588
g2
((lp1731
g1263
atRp1732
sI589
g2
((lp1733
g1512
atRp1734
sI590
g2
((lp1735
g1334
atRp1736
sI591
g2
((lp1737
VQ188860
p1738
atRp1739
sI592
g2
((lp1740
g1111
atRp1741
sI593
g2
((lp1742
g813
atRp1743
sI594
g2
((lp1744
g777
atRp1745
sI595
g2
((lp1746
g271
ag272
ag273
atRp1747
sI596
g2
((lp1748
VQ23039057
p1749
atRp1750
sI597
g2
((lp1751
g548
atRp1752
sI598
g2
((lp1753
g637
atRp1754
sI599
g2
((lp1755
g1146
atRp1756
sI600
g2
((lp1757
g1331
atRp1758
sI601
g2
((lp1759
g1545
atRp1760
sI602
g2
((lp1761
g166
atRp1762
sI603
g2
((lp1763
g236
atRp1764
sI604
g2
((lp1765
g16
atRp1766
sI605
g2
((lp1767
g379
ag386
ag382
atRp1768
sI606
g2
((lp1769
g926
atRp1770
sI607
g2
((lp1771
g1347
ag88
ag1398
ag1141
ag1478
atRp1772
sI608
g2
((lp1773
VQ169336
p1774
atRp1775
sI609
g2
((lp1776
g34
atRp1777
sI610
g2
((lp1778
g1714
atRp1779
sI611
g2
((lp1780
VQ4989906
p1781
atRp1782
sI612
g2
((lp1783
g542
atRp1784
sI613
g2
((lp1785
VQ81103
p1786
atRp1787
sI614
g2
((lp1788
VQ877353
p1789
atRp1790
sI615
g2
((lp1791
VQ93352
p1792
atRp1793
sI616
g2
((lp1794
VQ12139612
p1795
atRp1796
sI617
g2
((lp1797
VQ2623243
p1798
atRp1799
sI618
g2
((lp1800
VQ57821
p1801
atRp1802
sI619
g2
((lp1803
VQ8171
p1804
atRp1805
sI620
g2
((lp1806
g1211
aVQ1003631
p1807
ag774
ag634
aVQ1149395
p1808
atRp1809
sI621
g2
((lp1810
g427
atRp1811
sI622
g2
((lp1812
VQ577
p1813
atRp1814
sI623
g2
((lp1815
g697
atRp1816
sI624
g2
((lp1817
g1324
atRp1818
sI625
g2
((lp1819
g170
atRp1820
sI626
g2
((lp1821
g226
ag227
atRp1822
sI627
g2
((lp1823
g720
ag227
ag721
ag722
atRp1824
sI628
g2
((lp1825
g958
ag959
atRp1826
sI629
g2
((lp1827
g1545
ag1546
atRp1828
sI630
g2
((lp1829
g75
ag905
atRp1830
sI631
g2
((lp1831
g1364
atRp1832
sI632
g2
((lp1833
g923
ag797
atRp1834
sI633
g2
((lp1835
g259
aVQ207961
p1836
atRp1837
sI634
g2
((lp1838
g220
ag221
ag222
ag223
atRp1839
sI635
g2
((lp1840
g1359
ag1140
atRp1841
sI636
g2
((lp1842
VQ196538
p1843
atRp1844
sI637
g2
((lp1845
g1502
atRp1846
sI638
g2
((lp1847
g1206
atRp1848
sI639
g2
((lp1849
g1562
atRp1850
sI640
g2
((lp1851
g265
atRp1852
sI641
g2
((lp1853
g1047
atRp1854
sI642
g2
((lp1855
VQ965478
p1856
atRp1857
sI643
g2
((lp1858
g553
atRp1859
sI644
g2
((lp1860
VQ1792379
p1861
aVQ735
p1862
ag344
ag843
ag239
ag10
atRp1863
sI645
g2
((lp1864
VQ3839081
p1865
ag1458
atRp1866
sI646
g2
((lp1867
VQ22675021
p1868
atRp1869
sI647
g2
((lp1870
g1114
ag220
ag221
atRp1871
sI648
g2
((lp1872
g139
atRp1873
sI649
g2
((lp1874
g393
atRp1875
sI650
g2
((lp1876
g470
atRp1877
sI651
g2
((lp1878
g1190
atRp1879
sI652
g2
((lp1880
g6
atRp1881
sI653
g2
((lp1882
g1286
ag87
ag1287
ag952
ag515
ag865
atRp1883
sI654
g2
((lp1884
g1417
aVQ1183543
p1885
atRp1886
sI655
g2
((lp1887
g198
atRp1888
sI656
g2
((lp1889
VQ2342494
p1890
atRp1891
sI657
g2
((lp1892
g1082
ag1083
atRp1893
sI658
g2
((lp1894
VQ12132
p1895
ag858
aVQ185688
p1896
atRp1897
sI659
g2
((lp1898
g534
ag536
ag250
ag532
atRp1899
sI660
g2
((lp1900
g788
atRp1901
sI661
g2
((lp1902
g1856
atRp1903
sI662
g2
((lp1904
VQ1375427
p1905
atRp1906
sI663
g2
((lp1907
VQ134550
p1908
atRp1909
sI664
g2
((lp1910
VQ48204
p1911
atRp1912
sI665
g2
((lp1913
g476
ag980
atRp1914
sI666
g2
((lp1915
g1890
atRp1916
sI667
g2
((lp1917
g148
atRp1918
sI668
g2
((lp1919
g478
ag357
aVQ728
p1920
ag788
atRp1921
sI669
g2
((lp1922
g728
ag729
ag730
ag731
atRp1923
sI670
g2
((lp1924
g1027
atRp1925
sI671
g2
((lp1926
g1083
atRp1927
sI672
g2
((lp1928
g973
atRp1929
sI673
g2
((lp1930
VQ9748
p1931
atRp1932
sI674
g2
((lp1933
VQ15850590
p1934
atRp1935
sI675
g2
((lp1936
g259
atRp1937
sI676
g2
((lp1938
g59
atRp1939
sI677
g2
((lp1940
g448
atRp1941
sI678
g2
((lp1942
g747
atRp1943
sI679
g2
((lp1944
g850
atRp1945
sI680
g2
((lp1946
g1512
atRp1947
sI681
g2
((lp1948
g739
atRp1949
sI682
g2
((lp1950
g163
atRp1951
sI683
g2
((lp1952
g43
ag351
atRp1953
sI684
g2
((lp1954
g473
ag677
ag678
ag679
ag680
ag681
atRp1955
sI685
g2
((lp1956
g608
ag563
atRp1957
sI686
g2
((lp1958
g1180
atRp1959
sI687
g2
((lp1960
g1218
ag562
aVQ4894405
p1961
ag277
ag1484
ag1934
ag1861
aVQ483394
p1962
ag79
ag1478
aVQ21114848
p1963
ag778
atRp1964
sI688
g2
((lp1965
g1079
atRp1966
sI689
g2
((lp1967
g339
atRp1968
sI690
g2
((lp1969
g233
atRp1970
sI691
g2
((lp1971
g1215
atRp1972
sI692
g2
((lp1973
g1243
atRp1974
sI693
g2
((lp1975
g533
aVQ15991303
p1976
atRp1977
sI694
g2
((lp1978
g858
ag433
atRp1979
sI695
g2
((lp1980
g1290
atRp1981
sI696
g2
((lp1982
g280
ag281
atRp1983
sI697
g2
((lp1984
g75
ag905
atRp1985
sI698
g2
((lp1986
g796
ag797
ag798
ag799
atRp1987
sI699
g2
((lp1988
VQ8386
p1989
atRp1990
sI700
g2
((lp1991
g1243
atRp1992
sI701
g2
((lp1993
g276
ag277
ag1494
aVQ11410
p1994
ag34
ag1119
ag56
ag637
atRp1995
sI702
g2
((lp1996
g126
atRp1997
sI703
g2
((lp1998
g564
atRp1999
sI704
g2
((lp2000
g23
ag123
atRp2001
sI705
g2
((lp2002
g739
atRp2003
sI706
g2
((lp2004
g148
atRp2005
sI707
g2
((lp2006
VQ1075
p2007
atRp2008
sI708
g2
((lp2009
g870
ag897
atRp2010
sI709
g2
((lp2011
g1359
atRp2012
sI710
g2
((lp2013
VQ230658
p2014
atRp2015
sI711
g2
((lp2016
g1067
atRp2017
sI712
g2
((lp2018
g371
atRp2019
sI713
g2
((lp2020
g1362
ag1211
ag262
ag1808
ag34
ag1364
aVQ969090
p2021
aVQ799469
p2022
ag1363
ag1119
ag1807
ag1212
ag1129
ag84
ag1365
aVQ1152547
p2023
ag83
ag774
ag764
ag1366
ag151
atRp2024
sI714
g2
((lp2025
g284
ag1176
atRp2026
sI715
g2
((lp2027
g145
atRp2028
sI716
g2
((lp2029
g807
atRp2030
sI717
g2
((lp2031
g781
atRp2032
sI718
g2
((lp2033
VQ188889
p2034
atRp2035
sI719
g2
((lp2036
g162
ag1727
atRp2037
sI720
g2
((lp2038
g1861
ag1862
ag253
ag344
ag843
aVQ11417
p2039
ag239
ag10
atRp2040
sI721
g2
((lp2041
g1374
atRp2042
sI722
g2
((lp2043
g214
ag215
ag222
atRp2044
sI723
g2
((lp2045
g1304
atRp2046
sI724
g2
((lp2047
g233
ag1201
ag477
ag1037
ag1038
atRp2048
sI725
g2
((lp2049
g1856
atRp2050
sI726
g2
((lp2051
g1052
atRp2052
sI727
g2
((lp2053
g902
atRp2054
sI728
g2
((lp2055
g1006
atRp2056
sI729
g2
((lp2057
g629
ag547
ag1236
ag1015
ag992
ag1256
atRp2058
sI730
g2
((lp2059
VQ46970
p2060
atRp2061
sI731
g2
((lp2062
VQ483110
p2063
atRp2064
sI732
g2
((lp2065
g201
ag720
ag1017
atRp2066
sI733
g2
((lp2067
g2039
atRp2068
sI734
g2
((lp2069
g958
atRp2070
sI735
g2
((lp2071
g74
ag542
ag543
ag544
ag545
ag546
ag547
ag548
ag549
ag550
atRp2072
sI736
g2
((lp2073
g1174
ag1175
ag335
atRp2074
sI737
g2
((lp2075
g1187
atRp2076
sI738
g2
((lp2077
g923
ag892
atRp2078
sI739
g2
((lp2079
g233
ag1201
ag477
ag1037
ag1038
atRp2080
sI740
g2
((lp2081
VQ11204
p2082
atRp2083
sI741
g2
((lp2084
g2007
atRp2085
sI742
g2
((lp2086
g1038
atRp2087
sI743
g2
((lp2088
g473
ag474
ag475
ag476
ag477
ag478
ag479
atRp2089
sI744
g2
((lp2090
g973
atRp2091
sI745
g2
((lp2092
g979
atRp2093
sI746
g2
((lp2094
g1989
atRp2095
sI747
g2
((lp2096
g1315
ag1316
atRp2097
sI748
g2
((lp2098
g751
atRp2099
sI749
g2
((lp2100
g308
aVQ6881511
p2101
atRp2102
sI750
g2
((lp2103
g55
atRp2104
sI751
g2
((lp2105
g214
ag215
aVQ989255
p2106
ag216
ag217
atRp2107
sI752
g2
((lp2108
VQ177691
p2109
atRp2110
sI753
g2
((lp2111
g475
ag1344
atRp2112
sI754
g2
((lp2113
g1706
atRp2114
sI755
g2
((lp2115
g810
atRp2116
sI756
g2
((lp2117
g94
atRp2118
sI757
g2
((lp2119
g230
atRp2120
sI758
g2
((lp2121
g1149
ag1150
atRp2122
sI759
g2
((lp2123
g104
ag105
atRp2124
sI760
g2
((lp2125
g1509
atRp2126
sI761
g2
((lp2127
VQ1445650
p2128
ag320
atRp2129
sI762
g2
((lp2130
g1126
ag108
atRp2131
sI763
g2
((lp2132
g97
atRp2133
sI764
g2
((lp2134
g714
ag179
atRp2135
sI765
g2
((lp2136
VQ40231
p2137
ag413
ag1789
ag725
atRp2138
sI766
g2
((lp2139
g1060
atRp2140
sI767
g2
((lp2141
g1573
atRp2142
sI768
g2
((lp2143
g1438
atRp2144
sI769
g2
((lp2145
g1524
atRp2146
sI770
g2
((lp2147
g1517
atRp2148
sI771
g2
((lp2149
g1359
atRp2150
sI772
g2
((lp2151
VQ11032
p2152
atRp2153
sI773
g2
((lp2154
g1168
atRp2155
sI774
g2
((lp2156
VQ192611
p2157
atRp2158
sI775
g2
((lp2159
g1637
atRp2160
sI776
g2
((lp2161
g1236
ag875
atRp2162
sI777
g2
((lp2163
g697
atRp2164
sI778
g2
((lp2165
g687
atRp2166
sI779
g2
((lp2167
g983
atRp2168
sI780
g2
((lp2169
g539
atRp2170
sI781
g2
((lp2171
g1218
ag1219
atRp2172
sI782
g2
((lp2173
g493
atRp2174
sI783
g2
((lp2175
g287
atRp2176
sI784
g2
((lp2177
g1286
atRp2178
sI785
g2
((lp2179
g861
ag862
atRp2180
sI786
g2
((lp2181
g446
aVQ6156156
p2182
ag450
ag449
ag1296
ag1162
ag1600
ag1271
atRp2183
sI787
g2
((lp2184
VQ28877
p2185
atRp2186
sI788
g2
((lp2187
g802
atRp2188
sI789
g2
((lp2189
g602
atRp2190
sI790
g2
((lp2191
VQ937228
p2192
ag1441
ag918
atRp2193
sI791
g2
((lp2194
g1153
atRp2195
sI792
g2
((lp2196
g997
ag998
atRp2197
sI793
g2
((lp2198
g344
ag345
atRp2199
sI794
g2
((lp2200
g840
atRp2201
sI795
g2
((lp2202
g1256
atRp2203
sI796
g2
((lp2204
VQ40218
p2205
atRp2206
sI797
g2
((lp2207
g91
atRp2208
sI798
g2
((lp2209
g574
atRp2210
sI799
g2
((lp2211
g1801
atRp2212
sI800
g2
((lp2213
g1193
ag1194
atRp2214
sI801
g2
((lp2215
g810
atRp2216
sI802
g2
((lp2217
g120
ag162
ag163
atRp2218
sI803
g2
((lp2219
g1795
atRp2220
sI804
g2
((lp2221
VQ124734
p2222
atRp2223
sI805
g2
((lp2224
VQ1967745
p2225
atRp2226
sI806
g2
((lp2227
g1447
ag1150
ag482
atRp2228
sI807
g2
((lp2229
g482
atRp2230
sI808
g2
((lp2231
g384
aVQ325668
p2232
atRp2233
sI809
g2
((lp2234
g1774
atRp2235
sI810
g2
((lp2236
g446
ag2182
ag450
ag449
ag1296
ag1162
ag1600
ag1271
atRp2237
sI811
g2
((lp2238
g714
atRp2239
sI812
g2
((lp2240
g1556
atRp2241
sI813
g2
((lp2242
g1173
ag1174
ag1175
ag1176
ag1177
ag1178
ag236
ag1179
ag1180
atRp2243
sI814
g2
((lp2244
g1259
ag1260
atRp2245
sI815
g2
((lp2246
g1905
atRp2247
sI816
g2
((lp2248
g641
atRp2249
sI817
g2
((lp2250
g475
ag1344
atRp2251
sI818
g2
((lp2252
g71
atRp2253
sI819
g2
((lp2254
g1450
atRp2255
sI820
g2
((lp2256
g1180
atRp2257
sI821
g2
((lp2258
g1271
atRp2259
sI822
g2
((lp2260
g1327
atRp2261
sI823
g2
((lp2262
g293
atRp2263
sI824
g2
((lp2264
g1307
atRp2265
sI825
g2
((lp2266
VQ11348
p2267
atRp2268
sI826
g2
((lp2269
g2128
ag320
atRp2270
sI827
g2
((lp2271
VQ451967
p2272
atRp2273
sI828
g2
((lp2274
VQ811430
p2275
atRp2276
sI829
g2
((lp2277
g878
atRp2278
sI830
g2
((lp2279
g890
atRp2280
sI831
g2
((lp2281
g1472
ag397
ag902
ag894
ag816
atRp2282
sI832
g2
((lp2283
g869
atRp2284
sI833
g2
((lp2285
g1268
atRp2286
sI834
g2
((lp2287
VQ133067
p2288
atRp2289
sI835
g2
((lp2290
g29
atRp2291
sI836
g2
((lp2292
g71
atRp2293
sI837
g2
((lp2294
g1103
atRp2295
sI838
g2
((lp2296
g87
ag88
atRp2297
sI839
g2
((lp2298
g1442
atRp2299
sI840
g2
((lp2300
g478
ag357
ag1920
ag788
atRp2301
sI841
g2
((lp2302
g1110
ag1111
atRp2303
sI842
g2
((lp2304
g668
atRp2305
sI843
g2
((lp2306
g354
ag249
atRp2307
sI844
g2
((lp2308
g714
ag179
atRp2309
sI845
g2
((lp2310
g299
atRp2311
sI846
g2
((lp2312
g613
atRp2313
sI847
g2
((lp2314
g148
atRp2315
sI848
g2
((lp2316
g365
ag136
ag366
atRp2317
sI849
g2
((lp2318
g1352
atRp2319
sI850
g2
((lp2320
g2021
ag1365
atRp2321
sI851
g2
((lp2322
g629
ag630
ag631
ag45
ag632
ag309
ag82
ag633
ag634
atRp2323
sI852
g2
((lp2324
VQ17444171
p2325
ag1798
ag130
ag677
ag1749
atRp2326
sI853
g2
((lp2327
g1424
atRp2328
sI854
g2
((lp2329
g1726
ag1727
ag1268
ag813
atRp2330
sI855
g2
((lp2331
g348
atRp2332
sI856
g2
((lp2333
g533
ag1976
atRp2334
sI857
g2
((lp2335
g1100
atRp2336
sI858
g2
((lp2337
g55
atRp2338
sI859
g2
((lp2339
g1178
ag1174
ag236
atRp2340
sI860
g2
((lp2341
g2222
atRp2342
sI861
g2
((lp2343
g2272
atRp2344
sI862
g2
((lp2345
g91
ag62
ag436
ag437
atRp2346
sI863
g2
((lp2347
g169
ag170
ag171
ag172
atRp2348
sI864
g2
((lp2349
g1146
atRp2350
sI865
g2
((lp2351
g1295
atRp2352
sI866
g2
((lp2353
VQ571
p2354
ag1139
ag1140
atRp2355
sI867
g2
((lp2356
g37
atRp2357
sI868
g2
((lp2358
g2272
aVQ3769299
p2359
aVQ5
p2360
ag302
atRp2361
sI869
g2
((lp2362
g308
ag2101
atRp2363
sI870
g2
((lp2364
g1362
atRp2365
sI871
g2
((lp2366
g1431
atRp2367
sI872
g2
((lp2368
g668
atRp2369
sI873
g2
((lp2370
g1600
ag208
atRp2371
sI874
g2
((lp2372
g249
ag250
atRp2373
sI875
g2
((lp2374
g1709
atRp2375
sI876
g2
((lp2376
g461
atRp2377
sI877
g2
((lp2378
g1126
ag108
atRp2379
sI878
g2
((lp2380
g952
atRp2381
sI879
g2
((lp2382
g159
atRp2383
sI880
g2
((lp2384
g1344
atRp2385
sI881
g2
((lp2386
g890
atRp2387
sI882
g2
((lp2388
g2205
atRp2389
sI883
g2
((lp2390
g1726
aVQ3099911
p2391
atRp2392
sI884
g2
((lp2393
VQ34763
p2394
atRp2395
sI885
g2
((lp2396
g2354
ag1139
ag1140
atRp2397
sI886
g2
((lp2398
g843
ag844
atRp2399
sI887
g2
((lp2400
g594
ag1976
ag221
ag1475
ag1911
atRp2401
sI888
g2
((lp2402
g201
ag720
ag1017
atRp2403
sI889
g2
((lp2404
g825
atRp2405
sI890
g2
((lp2406
g665
atRp2407
sI891
g2
((lp2408
g74
ag105
ag543
ag545
ag546
ag548
ag905
ag550
atRp2409
sI892
g2
((lp2410
g2225
atRp2411
sI893
g2
((lp2412
g594
ag1976
ag221
ag1475
ag1911
atRp2413
sI894
g2
((lp2414
g558
atRp2415
sI895
g2
((lp2416
g777
atRp2417
sI896
g2
((lp2418
g742
atRp2419
sI897
g2
((lp2420
g2109
atRp2421
sI898
g2
((lp2422
g2022
ag1047
aVQ1344963
p2423
atRp2424
sI899
g2
((lp2425
VQ1151067
p2426
atRp2427
sI900
g2
((lp2428
g1911
atRp2429
sI901
g2
((lp2430
g1895
ag858
ag1896
atRp2431
sI902
g2
((lp2432
g1201
atRp2433
sI903
g2
((lp2434
g687
atRp2435
sI904
g2
((lp2436
g728
ag730
atRp2437
sI905
g2
((lp2438
g276
ag277
ag1494
ag1994
ag56
ag637
atRp2439
sI906
g2
((lp2440
g2022
ag1047
ag2423
atRp2441
sI907
g2
((lp2442
g1339
ag885
atRp2443
sI908
g2
((lp2444
g1111
atRp2445
sI909
g2
((lp2446
g1497
atRp2447
sI910
g2
((lp2448
VQ14745
p2449
atRp2450
sI911
g2
((lp2451
g1695
atRp2452
sI912
g2
((lp2453
g1453
atRp2454
sI913
g2
((lp2455
g1194
atRp2456
sI914
g2
((lp2457
g450
atRp2458
sI915
g2
((lp2459
VQ181394
p2460
atRp2461
sI916
g2
((lp2462
g327
atRp2463
sI917
g2
((lp2464
g1961
atRp2465
sI918
g2
((lp2466
g13
atRp2467
sI919
g2
((lp2468
VQ1371279
p2469
atRp2470
sI920
g2
((lp2471
g259
ag1836
atRp2472
sI921
g2
((lp2473
g1022
atRp2474
sI922
g2
((lp2475
g594
ag221
ag333
ag1976
atRp2476
sI923
g2
((lp2477
g2232
atRp2478
sI924
g2
((lp2479
g649
atRp2480
sI925
g2
((lp2481
g828
atRp2482
sI926
g2
((lp2483
g239
ag78
ag240
atRp2484
sI927
g2
((lp2485
VQ1752346
p2486
atRp2487
sI928
g2
((lp2488
g668
atRp2489
sI929
g2
((lp2490
g2232
atRp2491
sI930
g2
((lp2492
g5
atRp2493
sI931
g2
((lp2494
g400
ag401
atRp2495
sI932
g2
((lp2496
g1301
ag1055
atRp2497
sI933
g2
((lp2498
g1597
atRp2499
sI934
g2
((lp2500
g722
atRp2501
sI935
g2
((lp2502
g1738
atRp2503
sI936
g2
((lp2504
g284
atRp2505
sI937
g2
((lp2506
g1366
atRp2507
sI938
g2
((lp2508
g594
ag535
atRp2509
sI939
g2
((lp2510
g1114
aVQ1079023
p2511
ag1905
ag2423
atRp2512
sI940
g2
((lp2513
g2137
ag1789
ag413
atRp2514
sI941
g2
((lp2515
g1165
atRp2516
sI942
g2
((lp2517
VQ478798
p2518
atRp2519
sI943
g2
((lp2520
g117
atRp2521
sI944
g2
((lp2522
g1789
atRp2523
sI945
g2
((lp2524
g1263
atRp2525
sI946
g2
((lp2526
g1103
ag191
ag588
atRp2527
sI947
g2
((lp2528
g1934
atRp2529
sI948
g2
((lp2530
g1908
atRp2531
sI949
g2
((lp2532
g48
atRp2533
sI950
g2
((lp2534
g2063
atRp2535
sI951
g2
((lp2536
g591
atRp2537
sI952
g2
((lp2538
g1246
ag281
atRp2539
sI953
g2
((lp2540
g1792
atRp2541
sI954
g2
((lp2542
g1162
atRp2543
sI955
g2
((lp2544
g1083
atRp2545
sI956
g2
((lp2546
VQ476300
p2547
ag536
atRp2548
sI957
g2
((lp2549
g1717
atRp2550
sI958
g2
((lp2551
g1286
atRp2552
sI959
g2
((lp2553
g195
ag290
atRp2554
sI960
g2
((lp2555
g1896
atRp2556
sI961
g2
((lp2557
g416
atRp2558
sI962
g2
((lp2559
g321
atRp2560
sI963
g2
((lp2561
g246
atRp2562
sI964
g2
((lp2563
g1843
atRp2564
sI965
g2
((lp2565
g2486
atRp2566
sI966
g2
((lp2567
g968
ag401
ag2391
atRp2568
sI967
g2
((lp2569
VQ83620
p2570
atRp2571
sI968
g2
((lp2572
g1673
ag1578
atRp2573
sI969
g2
((lp2574
g1804
atRp2575
sI970
g2
((lp2576
g1344
atRp2577
sI971
g2
((lp2578
g1551
atRp2579
sI972
g2
((lp2580
g983
ag1411
ag899
atRp2581
sI973
g2
((lp2582
g1786
atRp2583
sI974
g2
((lp2584
VQ187939
p2585
atRp2586
sI975
g2
((lp2587
g2192
ag1441
ag918
atRp2588
sI976
g2
((lp2589
g641
atRp2590
sI977
g2
((lp2591
g1686
atRp2592
sI978
g2
((lp2593
g2185
atRp2594
sI979
g2
((lp2595
g1494
atRp2596
sI980
g2
((lp2597
g1398
ag123
atRp2598
sI981
g2
((lp2599
VQ3275581
p2600
atRp2601
sI982
g2
((lp2602
g2152
atRp2603
sI983
g2
((lp2604
g19
atRp2605
sI984
g2
((lp2606
g1813
atRp2607
sI985
g2
((lp2608
VQ16521
p2609
ag893
atRp2610
sI986
g2
((lp2611
g955
atRp2612
sI987
g2
((lp2613
g1963
aVQ41298
p2614
atRp2615
sI988
g2
((lp2616
g781
atRp2617
sI989
g2
((lp2618
g2060
atRp2619
sI990
g2
((lp2620
g176
atRp2621
sI991
g2
((lp2622
g2600
atRp2623
sI992
g2
((lp2624
g828
atRp2625
sI993
g2
((lp2626
g1551
ag1246
ag1014
ag2469
ag1060
ag281
aVQ7397
p2627
atRp2628
sI994
g2
((lp2629
g302
atRp2630
sI995
g2
((lp2631
g1646
atRp2632
sI996
g2
((lp2633
g1624
atRp2634
sI997
g2
((lp2635
g926
ag927
atRp2636
sI998
g2
((lp2637
g1726
ag2391
atRp2638
sI999
g2
((lp2639
g2518
atRp2640
sI1000
g2
((lp2641
g1156
atRp2642
sI1001
g2
((lp2643
g1283
atRp2644
sI1002
g2
((lp2645
g564
atRp2646
sI1003
g2
((lp2647
g918
atRp2648
sI1004
g2
((lp2649
g2469
atRp2650
sI1005
g2
((lp2651
g1159
atRp2652
sI1006
g2
((lp2653
g1417
ag1885
atRp2654
sI1007
g2
((lp2655
g1362
atRp2656
sI1008
g2
((lp2657
g1963
ag2614
atRp2658
sI1009
g2
((lp2659
g1256
atRp2660
sI1010
g2
((lp2661
g913
atRp2662
sI1011
g2
((lp2663
g1412
ag799
atRp2664
sI1012
g2
((lp2665
g320
ag321
atRp2666
sI1013
g2
((lp2667
g1027
ag1028
atRp2668
sI1014
g2
((lp2669
g869
atRp2670
sI1015
g2
((lp2671
g430
atRp2672
sI1016
g2
((lp2673
g2225
ag336
atRp2674
sI1017
g2
((lp2675
VQ131207
p2676
atRp2677
sI1018
g2
((lp2678
g108
atRp2679
sI1019
g2
((lp2680
g351
atRp2681
sI1020
g2
((lp2682
g1253
atRp2683
sI1021
g2
((lp2684
g777
ag778
atRp2685
sI1022
g2
((lp2686
g605
atRp2687
sI1023
g2
((lp2688
g1362
ag1363
ag1364
ag151
ag83
ag1365
ag764
ag1366
atRp2689
sI1024
g2
((lp2690
g2267
atRp2691
sI1025
g2
((lp2692
g179
atRp2693
sI1026
g2
((lp2694
g162
ag1727
atRp2695
sI1027
g2
((lp2696
g728
atRp2697
sI1028
g2
((lp2698
g1749
atRp2699
sI1029
g2
((lp2700
g1168
atRp2701
sI1030
g2
((lp2702
g696
atRp2703
sI1031
g2
((lp2704
VQ8434
p2705
atRp2706
sI1032
g2
((lp2707
g2394
atRp2708
sI1033
g2
((lp2709
g2157
atRp2710
sI1034
g2
((lp2711
g2275
atRp2712
sI1035
g2
((lp2713
g2547
ag536
atRp2714
sI1036
g2
((lp2715
g885
atRp2716
sI1037
g2
((lp2717
g992
atRp2718
sI1038
g2
((lp2719
g526
atRp2720
sI1039
g2
((lp2721
g1211
ag1807
ag774
ag634
ag1808
atRp2722
sI1040
g2
((lp2723
g810
atRp2724
sI1041
g2
((lp2725
g2039
atRp2726
sI1042
g2
((lp2727
g831
atRp2728
sI1043
g2
((lp2729
g868
ag807
ag534
ag869
ag870
ag871
ag386
atRp2730
sI1044
g2
((lp2731
g840
atRp2732
sI1045
g2
((lp2733
g644
atRp2734
sI1046
g2
((lp2735
g550
atRp2736
sI1047
g2
((lp2737
g1401
atRp2738
sI1048
g2
((lp2739
g421
atRp2740
sI1049
g2
((lp2741
g1781
atRp2742
sI1050
g2
((lp2743
g1316
atRp2744
sI1051
g2
((lp2745
g542
atRp2746
sI1052
g2
((lp2747
g641
atRp2748
sI1053
g2
((lp2749
VQ107425
p2750
atRp2751
sI1054
g2
((lp2752
g1533
atRp2753
sI1055
g2
((lp2754
g284
atRp2755
sI1056
g2
((lp2756
g1502
atRp2757
sI1057
g2
((lp2758
g276
ag277
atRp2759
sI1058
g2
((lp2760
g461
atRp2761
sI1059
g2
((lp2762
g1487
ag1328
atRp2763
sI1060
g2
((lp2764
g333
ag334
ag335
ag336
atRp2765
sI1061
g2
((lp2766
g59
atRp2767
sI1062
g2
((lp2768
g413
atRp2769
sI1063
g2
((lp2770
g1312
atRp2771
sI1064
g2
((lp2772
g1243
atRp2773
sI1065
g2
((lp2774
g2750
atRp2775
sI1066
g2
((lp2776
g2426
atRp2777
sI1067
g2
((lp2778
g781
atRp2779
sI1068
g2
((lp2780
g968
atRp2781
sI1069
g2
((lp2782
g1868
atRp2783
sI1070
g2
((lp2784
g870
ag897
atRp2785
sI1071
g2
((lp2786
g2705
atRp2787
sI1072
g2
((lp2788
g296
atRp2789
sI1073
g2
((lp2790
g561
ag562
ag563
ag564
atRp2791
sI1074
g2
((lp2792
g1315
ag380
ag383
ag1316
atRp2793
sI1075
g2
((lp2794
g1218
ag562
ag1961
ag277
ag1484
ag1934
ag1861
ag1962
ag79
ag1478
ag1963
ag778
atRp2795
sI1076
g2
((lp2796
g2034
atRp2797
sI1077
g2
((lp2798
g1369
atRp2799
sI1078
g2
((lp2800
g2600
atRp2801
sI1079
g2
((lp2802
g781
atRp2803
sI1080
g2
((lp2804
g865
atRp2805
sI1081
g2
((lp2806
g1865
ag1458
atRp2807
sI1082
g2
((lp2808
g681
atRp2809
sI1083
g2
((lp2810
g847
atRp2811
sI1084
g2
((lp2812
g1271
atRp2813
sI1085
g2
((lp2814
g120
atRp2815
sI1086
g2
((lp2816
g312
atRp2817
sI1087
g2
((lp2818
g692
atRp2819
sI1088
g2
((lp2820
g447
ag874
ag324
ag825
ag656
ag875
ag421
atRp2821
sI1089
g2
((lp2822
g553
atRp2823
sI1090
g2
((lp2824
g1028
atRp2825
sI1091
g2
((lp2826
g865
atRp2827
sI1092
g2
((lp2828
g2570
atRp2829
sI1093
g2
((lp2830
g897
ag898
ag899
atRp2831
sI1094
g2
((lp2832
g2325
ag1798
ag130
ag677
ag1749
atRp2833
sI1095
g2
((lp2834
g708
ag949
atRp2835
sI1096
g2
((lp2836
g594
ag221
ag333
ag1976
atRp2837
sI1097
g2
((lp2838
g1215
atRp2839
sI1098
g2
((lp2840
g810
atRp2841
sI1099
g2
((lp2842
g1259
atRp2843
sI1100
g2
((lp2844
g1545
atRp2845
sI1101
g2
((lp2846
g816
atRp2847
sI1102
g2
((lp2848
g1410
ag640
ag1411
ag1412
atRp2849
sI1103
g2
((lp2850
g365
ag822
ag171
atRp2851
sI1104
g2
((lp2852
g905
atRp2853
sI1105
g2
((lp2854
g910
atRp2855
sI1106
g2
((lp2856
g1344
atRp2857
sI1107
g2
((lp2858
g2288
atRp2859
sI1108
g2
((lp2860
g1295
atRp2861
sI1109
g2
((lp2862
g253
atRp2863
sI1110
g2
((lp2864
g574
atRp2865
sI1111
g2
((lp2866
g1362
ag2511
ag1211
ag2021
ag1363
ag2023
ag1364
ag84
ag2423
ag764
ag1808
ag151
ag2022
ag83
ag1366
ag1905
ag1114
ag774
ag262
ag1807
ag1212
ag1365
ag1129
atRp2867
sI1112
g2
((lp2868
g898
atRp2869
sI1113
g2
((lp2870
g1321
atRp2871
sI1114
g2
((lp2872
g2460
atRp2873
sI1115
g2
((lp2874
g739
atRp2875
sI1116
g2
((lp2876
g1103
ag191
ag588
atRp2877
sI1117
g2
((lp2878
g114
atRp2879
sI1118
g2
((lp2880
g2082
atRp2881
sI1119
g2
((lp2882
g321
atRp2883
s.